

Microchip MPLAB XC8 Assembler V2.41 build 20230208172133 
                                                                                               Sun Apr  9 15:36:54 2023

Microchip MPLAB XC8 C Compiler v2.41 (Free license) build 20230208172133 Og1 
     1                           	processor	18F16Q41
     2                           	fnconf	rparam,??,?,0
     3                           	pagewidth 120
     4                           	opt	flic
     5                           	psect	idataCOMRAM,global,class=CODE,delta=1,noexec
     6                           	psect	idataBANK5,global,class=CODE,delta=1,noexec
     7                           	psect	smallconst,global,reloc=2,class=SMALLCONST,delta=1,noexec
     8                           	psect	nvBANK5,global,class=BANK5,space=1,delta=1,lowdata,noexec
     9                           	psect	cinit,global,reloc=2,class=CODE,delta=1
    10                           	psect	bssCOMRAM,global,class=COMRAM,space=1,delta=1,lowdata,noexec
    11                           	psect	dataCOMRAM,global,class=COMRAM,space=1,delta=1,lowdata,noexec
    12                           	psect	bssBANK5,global,class=BANK5,space=1,delta=1,lowdata,noexec
    13                           	psect	dataBANK5,global,class=BANK5,space=1,delta=1,lowdata,noexec
    14                           	psect	cstackBANK5,global,class=BANK5,space=1,delta=1,lowdata,noexec
    15                           	psect	cstackCOMRAM,global,class=COMRAM,space=1,delta=1,lowdata,noexec
    16                           	psect	text0,global,reloc=2,class=CODE,delta=1
    17                           	psect	text1,global,reloc=2,class=CODE,delta=1
    18                           	psect	text2,global,reloc=2,class=CODE,delta=1
    19                           	psect	text3,global,reloc=2,class=CODE,delta=1
    20                           	psect	text4,global,reloc=2,class=CODE,delta=1,group=3
    21                           	psect	text5,global,reloc=2,class=CODE,delta=1,group=1
    22                           	psect	text6,global,reloc=2,class=CODE,delta=1,group=1
    23                           	psect	text7,global,reloc=2,class=CODE,delta=1,group=1
    24                           	psect	text8,global,reloc=2,class=CODE,delta=1,group=2
    25                           	psect	text9,global,reloc=2,class=CODE,delta=1,group=2
    26                           	psect	text10,global,reloc=2,class=CODE,delta=1,group=1
    27                           	psect	text11,global,reloc=2,class=CODE,delta=1,group=1
    28                           	psect	text12,global,reloc=2,class=CODE,delta=1,group=3
    29                           	psect	text13,global,reloc=2,class=CODE,delta=1,group=3
    30                           	psect	text14,global,reloc=2,class=CODE,delta=1
    31                           	psect	text15,global,reloc=2,class=CODE,delta=1
    32                           	psect	text16,global,reloc=2,class=CODE,delta=1
    33                           	psect	text17,global,reloc=2,class=CODE,delta=1,group=3
    34                           	psect	text18,global,reloc=2,class=CODE,delta=1,group=2
    35                           	psect	text19,global,reloc=2,class=CODE,delta=1,group=2
    36                           	psect	text20,global,reloc=2,class=CODE,delta=1
    37                           	psect	text21,global,reloc=2,class=CODE,delta=1
    38                           	psect	text22,global,reloc=2,class=CODE,delta=1
    39                           	psect	text23,global,reloc=2,class=CODE,delta=1
    40                           	psect	text24,global,reloc=2,class=CODE,delta=1
    41                           	psect	text25,global,reloc=2,class=CODE,delta=1
    42                           	psect	text26,global,reloc=2,class=CODE,delta=1
    43                           	psect	text27,global,reloc=2,class=CODE,delta=1
    44                           	psect	text28,global,reloc=2,class=CODE,delta=1
    45                           	psect	text29,global,reloc=2,class=CODE,delta=1
    46                           	psect	text30,global,reloc=2,class=CODE,delta=1
    47                           	psect	text31,global,reloc=2,class=CODE,delta=1
    48                           	psect	text32,global,reloc=2,class=CODE,delta=1
    49                           	psect	text33,global,reloc=2,class=CODE,delta=1
    50                           	psect	text34,global,reloc=2,class=CODE,delta=1
    51                           	psect	text35,global,reloc=2,class=CODE,delta=1
    52                           	psect	text36,global,reloc=2,class=CODE,delta=1
    53                           	psect	text37,global,reloc=2,class=CODE,delta=1
    54                           	psect	text38,global,reloc=2,class=CODE,delta=1
    55                           	psect	text39,global,reloc=2,class=CODE,delta=1
    56                           	psect	text40,global,reloc=2,class=CODE,delta=1
    57                           	psect	text41,global,reloc=2,class=CODE,delta=1
    58                           	psect	text42,global,reloc=4,class=CODE,delta=1
    59                           	psect	text43,global,reloc=4,class=CODE,delta=1
    60                           	psect	text44,global,reloc=2,class=CODE,delta=1
    61                           	psect	text45,global,reloc=4,class=CODE,delta=1
    62                           	psect	text46,global,reloc=2,class=CODE,delta=1
    63                           	psect	text47,global,reloc=2,class=CODE,delta=1
    64                           	psect	text48,global,reloc=4,class=CODE,delta=1
    65                           	psect	text49,global,reloc=2,class=CODE,delta=1
    66                           	psect	text50,global,reloc=2,class=CODE,delta=1
    67                           	psect	text51,global,reloc=4,class=CODE,delta=1
    68                           	psect	text52,global,reloc=2,class=CODE,delta=1
    69                           	psect	text53,global,reloc=2,class=CODE,delta=1
    70                           	psect	text54,global,reloc=4,class=CODE,delta=1
    71                           	psect	text55,global,reloc=2,class=CODE,delta=1
    72                           	psect	text56,global,reloc=2,class=CODE,delta=1
    73                           	psect	text57,global,reloc=2,class=CODE,delta=1
    74                           	psect	ivt0x8,global,reloc=2,class=CODE,delta=1,noexec,keep,optim=
    75                           	psect	intsave_regs,global,class=BIGRAM,space=1,delta=1,noexec
    76                           	psect	text58,global,reloc=2,class=CODE,delta=1
    77                           	psect	rparam,global,class=COMRAM,space=1,delta=1,noexec
    78                           	psect	idloc,global,abs,ovrld,class=IDLOC,space=5,delta=1,noexec
    79                           	psect	config,global,abs,ovrld,class=CONFIG,space=4,delta=1,noexec
    80   000000                     
    81                           ; Generated 17/06/2022 GMT
    82                           ; 
    83                           ; Copyright © 2022, Microchip Technology Inc. and its subsidiaries ("Microchip")
    84                           ; All rights reserved.
    85                           ; 
    86                           ; This software is developed by Microchip Technology Inc. and its subsidiaries ("Microch
      +                          ip").
    87                           ; 
    88                           ; Redistribution and use in source and binary forms, with or without modification, are
    89                           ; permitted provided that the following conditions are met:
    90                           ; 
    91                           ;     1. Redistributions of source code must retain the above copyright notice, this lis
      +                          t of
    92                           ;        conditions and the following disclaimer.
    93                           ; 
    94                           ;     2. Redistributions in binary form must reproduce the above copyright notice, this 
      +                          list
    95                           ;        of conditions and the following disclaimer in the documentation and/or other
    96                           ;        materials provided with the distribution. Publication is not required when
    97                           ;        this file is used in an embedded application.
    98                           ; 
    99                           ;     3. Microchip's name may not be used to endorse or promote products derived from th
      +                          is
   100                           ;        software without specific prior written permission.
   101                           ; 
   102                           ; THIS SOFTWARE IS PROVIDED BY MICROCHIP "AS IS" AND ANY EXPRESS OR IMPLIED WARRANTIES,
   103                           ; INCLUDING, BUT NOT LIMITED TO, THE IMPLIED WARRANTIES OF MERCHANTABILITY AND FITNESS F
      +                          OR
   104                           ; PURPOSE ARE DISCLAIMED.  IN NO EVENT SHALL MICROCHIP BE LIABLE FOR ANY DIRECT, INDIREC
      +                          T,
   105                           ; INCIDENTAL, SPECIAL, EXEMPLARY, OR CONSEQUENTIAL DAMAGES (INCLUDING BUT NOT LIMITED TO
   106                           ; PROCUREMENT OF SUBSTITUTE GOODS OR SERVICES; LOSS OF USE, DATA OR PROFITS; OR BUSINESS
   107                           ; INTERRUPTION) HOWSOEVER CAUSED AND ON ANY THEORY OF LIABILITY, WHETHER IN CONTRACT, ST
      +                          RICT
   108                           ; LIABILITY, OR TORT (INCLUDING NEGLIGENCE OR OTHERWISE) ARISING IN ANY WAY OUT OF THE U
      +                          SE OF
   109                           ; THIS SOFTWARE, EVEN IF ADVISED OF THE POSSIBILITY OF SUCH DAMAGE.
   110                           ; 
   111                           ; 
   112                           ; Code-generator required, PIC18F16Q41 Definitions
   113                           ; 
   114                           ; SFR Addresses
   115   000000                     
   116 ;; Function _UART1_Deinitialize is unused but had its address taken
   117   000000                     
   118 ;; Function _UART1_TransmitEnable is unused but had its address taken
   119   000000                     
   120 ;; Function _UART1_TransmitDisable is unused but had its address taken
   121   000000                     
   122 ;; Function _UART1_AutoBaudSet is unused but had its address taken
   123   000000                     
   124 ;; Function _UART1_AutoBaudQuery is unused but had its address taken
   125   000000                     
   126 ;; Function _UART1_IsRxReady is unused but had its address taken
   127   000000                     
   128 ;; Function _UART1_IsTxDone is unused but had its address taken
   129   000000                     
   130 ;; Function _UART1_ErrorGet is unused but had its address taken
   131   000000                     
   132 ;; Function _UART1_Read is unused but had its address taken
   133   000000                     
   134 ;; Function _UART1_DefaultFramingErrorCallback is unused but had its address taken
   135   000000                     
   136 ;; Function _UART1_DefaultOverrunErrorCallback is unused but had its address taken
   137   000000                     
   138 ;; Function _UART1_DefaultParityErrorCallback is unused but had its address taken
   139   000000                     
   140 ;; Function _Timer0_DefaultOverflowCallback is unused but had its address taken
   141   000000                     
   142 ;; Function _Timer0_Tasks is unused but had its address taken
   143   000000                     
   144                           	psect	idataCOMRAM
   145   002628                     __pidataCOMRAM:
   146                           	callstack 0
   147                           
   148                           ;initializer for covert_channel_logic@first
   149   002628  01                 	db	1
   150                           
   151                           	psect	idataBANK5
   152   002618                     __pidataBANK5:
   153                           	callstack 0
   154                           
   155                           ;initializer for _ptr_cnt
   156   002618  18                 	db	24
   157   002619  03                 	db	3
   158                           
   159                           	psect	smallconst
   160   001600                     __psmallconst:
   161                           	callstack 0
   162   001600  00                 	db	0
   163   001601                     _UART1:
   164                           	callstack 0
   165   001601  26                 	db	low _UART1_Initialize
   166   001602  1E                 	db	high _UART1_Initialize
   167   001603  00                 	db	0
   168   001604  00                 	db	0
   169   001605  00                 	db	0
   170   001606  00                 	db	0
   171   001607  FC                 	db	low _UART1_Write
   172   001608  25                 	db	high _UART1_Write
   173   001609  00                 	db	0
   174   00160A  00                 	db	0
   175   00160B  2E                 	db	low _UART1_IsTxReady
   176   00160C  24                 	db	high _UART1_IsTxReady
   177   00160D  00                 	db	0
   178   00160E  00                 	db	0
   179   00160F  00                 	db	0
   180   001610  00                 	db	0
   181   001611  00                 	db	0
   182   001612  00                 	db	0
   183   001613  00                 	db	0
   184   001614  00                 	db	0
   185   001615  00                 	db	0
   186   001616  00                 	db	0
   187   001617  00                 	db	0
   188   001618  00                 	db	0
   189   001619  00                 	db	0
   190   00161A  00                 	db	0
   191   00161B  00                 	db	0
   192   00161C  00                 	db	0
   193   00161D  00                 	db	0
   194   00161E  00                 	db	0
   195   00161F  00                 	db	0
   196   001620  00                 	db	0
   197   001621  00                 	db	0
   198   001622  00                 	db	0
   199   001623  00                 	db	0
   200   001624  00                 	db	0
   201   001625  00                 	db	0
   202   001626  00                 	db	0
   203   001627  00                 	db	0
   204   001628  00                 	db	0
   205   001629  18                 	db	low _UART1_FramingErrorCallbackRegister
   206   00162A  25                 	db	high _UART1_FramingErrorCallbackRegister
   207   00162B  FC                 	db	low _UART1_OverrunErrorCallbackRegister
   208   00162C  24                 	db	high _UART1_OverrunErrorCallbackRegister
   209   00162D  E0                 	db	low _UART1_ParityErrorCallbackRegister
   210   00162E  24                 	db	high _UART1_ParityErrorCallbackRegister
   211   00162F  00                 	db	0
   212   001630  00                 	db	0
   213   001631                     __end_of_UART1:
   214                           	callstack 0
   215   001631                     _Timer0:
   216                           	callstack 0
   217   001631  48                 	db	low _Timer0_Initialize
   218   001632  23                 	db	high _Timer0_Initialize
   219   001633  04                 	db	low _Timer0_Start
   220   001634  26                 	db	high _Timer0_Start
   221   001635  12                 	db	low _Timer0_Stop
   222   001636  26                 	db	high _Timer0_Stop
   223   001637  B4                 	db	low _Timer0_Write
   224   001638  25                 	db	high _Timer0_Write
   225   001639  CA                 	db	low _Timer0_OverflowCallbackRegister
   226   00163A  25                 	db	high _Timer0_OverflowCallbackRegister
   227   00163B  00                 	db	0
   228   00163C  00                 	db	0
   229   00163D                     __end_of_Timer0:
   230                           	callstack 0
   231   000000                     _PIR2bits	set	1205
   232   000000                     _DMAnAIRQ	set	254
   233   000000                     _DMAnSIRQ	set	255
   234   000000                     _DMAnCON1	set	253
   235   000000                     _T0CON0	set	794
   236   000000                     _PIR3bits	set	1206
   237   000000                     _T0CON1	set	795
   238   000000                     _PIR6bits	set	1209
   239   000000                     _OSCTUNE	set	176
   240   000000                     _OSCFRQ	set	177
   241   000000                     _OSCEN	set	179
   242   000000                     _IOCBF	set	1039
   243   000000                     _IOCBN	set	1038
   244   000000                     _IOCBP	set	1037
   245   000000                     _IOCAF	set	1031
   246   000000                     _IOCAN	set	1030
   247   000000                     _IOCAP	set	1029
   248   000000                     _INLVLB	set	1036
   249   000000                     _INLVLA	set	1028
   250   000000                     _SLRCONB	set	1035
   251   000000                     _SLRCONA	set	1027
   252   000000                     _ODCONB	set	1034
   253   000000                     _ODCONA	set	1026
   254   000000                     _WPUB	set	1033
   255   000000                     _WPUA	set	1025
   256   000000                     _ANSELC	set	1040
   257   000000                     _ANSELB	set	1032
   258   00163D                     STR_1:
   259   00163D  28                 	db	40
   260   00163E  25                 	db	37
   261   00163F  64                 	db	100	;'d'
   262   001640  2C                 	db	44
   263   001641  20                 	db	32
   264   001642  25                 	db	37
   265   001643  75                 	db	117	;'u'
   266   001644  29                 	db	41
   267   001645  0D                 	db	13
   268   001646  0A                 	db	10
   269   001647  00                 	db	0
   270   001648                     STR_2:
   271   001648  48                 	db	72	;'H'
   272   001649  65                 	db	101	;'e'
   273   00164A  6C                 	db	108	;'l'
   274   00164B  6C                 	db	108	;'l'
   275   00164C  6C                 	db	108	;'l'
   276   00164D  6F                 	db	111	;'o'
   277   00164E  0A                 	db	10
   278   00164F  0D                 	db	13
   279   001650  00                 	db	0
   280   001651  00                 	db	0	; dummy byte at the end
   281   000000                     
   282                           	psect	nvBANK5
   283   0005A2                     __pnvBANK5:
   284                           	callstack 0
   285   0005A2                     _DMA1_SCNTI_InterruptHandler:
   286                           	callstack 0
   287   0005A2                     	ds	2
   288   0005A4                     _Timer0_OverflowCallback:
   289                           	callstack 0
   290   0005A4                     	ds	2
   291   000000                     _DMAnCON0bits	set	252
   292   000000                     _DMAnCON1bits	set	253
   293   000000                     _PRLOCKbits	set	180
   294   000000                     _U1FIFObits	set	688
   295   000000                     _U1ERRIRbits	set	690
   296   000000                     _U1UIRbits	set	689
   297   000000                     _U1CON0bits	set	683
   298   000000                     _U1CON1bits	set	684
   299   000000                     _T0CON0bits	set	794
   300   000000                     _IVTLOCKbits	set	1113
   301   000000                     _GIE	set	9911
   302   000000                     _ACTCON	set	172
   303   000000                     _OSCCON1	set	173
   304   000000                     _RB7PPS	set	528
   305   000000                     _U1RXPPS	set	626
   306   000000                     _RB6I2C	set	646
   307   000000                     _RB4I2C	set	647
   308   000000                     _ANSELA	set	1024
   309   000000                     _LATA	set	1214
   310   000000                     _TRISA	set	1222
   311   000000                     _LATC	set	1216
   312   000000                     _LATB	set	1215
   313   000000                     _INTCON0bits	set	1238
   314   000000                     _TRISC	set	1224
   315   000000                     _TRISB	set	1223
   316   000000                     _IVTLOCK	set	1113
   317   000000                     _IOCCF	set	1047
   318   000000                     _IOCCN	set	1046
   319   000000                     _IOCCP	set	1045
   320   000000                     _INLVLC	set	1044
   321   000000                     _SLRCONC	set	1043
   322   000000                     _ODCONC	set	1042
   323   000000                     _WPUC	set	1041
   324   000000                     _U1RXB	set	673
   325   000000                     _OSCCON3	set	175
   326   000000                     _MAINPR	set	190
   327   000000                     _DMA4PR	set	185
   328   000000                     _DMA3PR	set	184
   329   000000                     _DMA2PR	set	183
   330   000000                     _DMA1PR	set	182
   331   000000                     _SCANPR	set	181
   332   000000                     _PRLOCK	set	180
   333   000000                     _DMASELECT	set	232
   334   000000                     _DMAnCON0	set	252
   335   000000                     _DMAnSSA	set	249
   336   000000                     _DMAnDPTR	set	236
   337   000000                     _DMAnDSZ	set	238
   338   000000                     _DMAnDSA	set	240
   339   000000                     _DMAnSPTR	set	244
   340   000000                     _DMAnSSZ	set	247
   341   000000                     _PRODL	set	1267
   342   000000                     _PRODH	set	1268
   343   000000                     _U2TXB	set	694
   344   000000                     _U1ERRIE	set	691
   345   000000                     _U1ERRIR	set	690
   346   000000                     _U1UIR	set	689
   347   000000                     _U1FIFO	set	688
   348   000000                     _U1BRGH	set	687
   349   000000                     _U1BRGL	set	686
   350   000000                     _U1CON2	set	685
   351   000000                     _U1CON1	set	684
   352   000000                     _U1CON0	set	683
   353   000000                     _U1P3H	set	682
   354   000000                     _U1P3L	set	681
   355   000000                     _U1P2H	set	680
   356   000000                     _U1P2L	set	679
   357   000000                     _U1P1H	set	678
   358   000000                     _U1P1L	set	677
   359   000000                     _U1TXCHK	set	676
   360   000000                     _U1TXB	set	675
   361   000000                     _U1RXCHK	set	674
   362   000000                     _ISRPR	set	191
   363   000000                     _U2P1L	set	696
   364   000000                     _U2P2L	set	698
   365   000000                     _U2P3L	set	700
   366   000000                     _U2CON0	set	702
   367   000000                     _TMR0L	set	792
   368   000000                     _TMR0H	set	793
   369   000000                     _IPR0bits	set	871
   370   000000                     _U2ERRIE	set	710
   371   000000                     _U2ERRIR	set	709
   372   000000                     _U2UIR	set	708
   373   000000                     _U2FIFO	set	707
   374   000000                     _U2BRGH	set	706
   375   000000                     _U2BRGL	set	705
   376   000000                     _U2CON2	set	704
   377   000000                     _U2CON1	set	703
   378   000000                     _IVTBASEL	set	1117
   379   000000                     _IVTBASEH	set	1118
   380   000000                     _IVTBASEU	set	1119
   381   000000                     _PIE2bits	set	1194
   382   000000                     _PIR1bits	set	1204
   383   000000                     _IPR2bits	set	873
   384   000000                     _PIR10bits	set	1213
   385                           
   386                           ; #config settings
   387                           
   388                           	psect	cinit
   389   002132                     __pcinit:
   390                           	callstack 0
   391   002132                     start_initialization:
   392                           	callstack 0
   393   002132                     __initialization:
   394                           	callstack 0
   395                           
   396                           ; Initialize objects allocated to BANK5 (2 bytes)
   397                           ; load TBLPTR registers with __pidataBANK5
   398   002132  0E18               	movlw	low __pidataBANK5
   399   002134  6EF6               	movwf	tblptrl,c
   400   002136  0E26               	movlw	high __pidataBANK5
   401   002138  6EF7               	movwf	tblptrh,c
   402   00213A  0E00               	movlw	low (__pidataBANK5 shr (0+16))
   403   00213C  6EF8               	movwf	tblptru,c
   404   00213E  0009               	tblrd		*+	;fetch initializer
   405   002140  C4F5 F5A6          	movff	tablat,__pdataBANK5
   406   002144  0009               	tblrd		*+	;fetch initializer
   407   002146  C4F5 F5A7          	movff	tablat,__pdataBANK5+1
   408                           
   409                           ; Initialize objects allocated to COMRAM (1 bytes)
   410                           ; load TBLPTR registers with __pidataCOMRAM
   411   00214A  0E28               	movlw	low __pidataCOMRAM
   412   00214C  6EF6               	movwf	tblptrl,c
   413   00214E  0E26               	movlw	high __pidataCOMRAM
   414   002150  6EF7               	movwf	tblptrh,c
   415   002152  0E00               	movlw	low (__pidataCOMRAM shr (0+16))
   416   002154  6EF8               	movwf	tblptru,c
   417   002156  0009               	tblrd		*+	;fetch initializer
   418   002158  C4F5 F556          	movff	tablat,__pdataCOMRAM
   419                           
   420                           ; Clear objects allocated to BANK5 (58 bytes)
   421   00215C  EE01  F160         	lfsr	0,__pbssBANK5
   422   002160  0E3A               	movlw	58
   423   002162                     clear_0:
   424   002162  6AEE               	clrf	postinc0,c
   425   002164  06E8               	decf	wreg,f,c
   426   002166  E1FD               	bnz	clear_0
   427                           
   428                           ; Clear objects allocated to COMRAM (13 bytes)
   429   002168  EE01  F149         	lfsr	0,__pbssCOMRAM
   430   00216C  0E0D               	movlw	13
   431   00216E                     clear_1:
   432   00216E  6AEE               	clrf	postinc0,c
   433   002170  06E8               	decf	wreg,f,c
   434   002172  E1FD               	bnz	clear_1
   435                           
   436                           ;
   437                           ; Setup IVTBASE
   438                           ;
   439   002174  0104               	movlb	4
   440   002176  0E08               	movlw	(ivt0x8_base shr 0)& (0+255)
   441   002178  6F5D               	movwf	93,b
   442   00217A  0E00               	movlw	(ivt0x8_base shr (0+8))& (0+255)
   443   00217C  6F5E               	movwf	94,b
   444   00217E  0E00               	movlw	(ivt0x8_base shr (0+16))& (0+255)
   445   002180  6F5F               	movwf	95,b
   446   002182                     end_of_initialization:
   447                           	callstack 0
   448   002182                     __end_of__initialization:
   449                           	callstack 0
   450   002182  0100               	movlb	0
   451   002184  EF62  F012         	goto	_main	;jump to C main() function
   452                           
   453                           	psect	bssCOMRAM
   454   000549                     __pbssCOMRAM:
   455                           	callstack 0
   456   000549                     _prec:
   457                           	callstack 0
   458   000549                     	ds	2
   459   00054B                     _timerTMR0ReloadVal16bit:
   460                           	callstack 0
   461   00054B                     	ds	2
   462   00054D                     _UART1_FramingErrorHandler:
   463                           	callstack 0
   464   00054D                     	ds	2
   465   00054F                     _sync:
   466                           	callstack 0
   467   00054F                     	ds	2
   468   000551                     _sample:
   469                           	callstack 0
   470   000551                     	ds	2
   471   000553                     _input_symbol:
   472                           	callstack 0
   473   000553                     	ds	2
   474   000555                     _flags:
   475                           	callstack 0
   476   000555                     	ds	1
   477                           
   478                           	psect	dataCOMRAM
   479   000556                     __pdataCOMRAM:
   480                           	callstack 0
   481   000556                     covert_channel_logic@first:
   482                           	callstack 0
   483   000556                     	ds	1
   484                           
   485                           	psect	bssBANK5
   486   000560                     __pbssBANK5:
   487                           	callstack 0
   488   000560                     _width:
   489                           	callstack 0
   490   000560                     	ds	2
   491   000562                     _INT2_InterruptHandler:
   492                           	callstack 0
   493   000562                     	ds	2
   494   000564                     _INT1_InterruptHandler:
   495                           	callstack 0
   496   000564                     	ds	2
   497   000566                     _INT0_InterruptHandler:
   498                           	callstack 0
   499   000566                     	ds	2
   500   000568                     _UART1_ParityErrorHandler:
   501                           	callstack 0
   502   000568                     	ds	2
   503   00056A                     _UART1_OverrunErrorHandler:
   504                           	callstack 0
   505   00056A                     	ds	2
   506   00056C                     _uart1RxLastError:
   507                           	callstack 0
   508   00056C                     	ds	2
   509   00056E                     _end:
   510                           	callstack 0
   511   00056E                     	ds	2
   512   000570                     _start:
   513                           	callstack 0
   514   000570                     	ds	2
   515   000572                     _dst:
   516                           	callstack 0
   517   000572                     	ds	2
   518   000574                     _src:
   519                           	callstack 0
   520   000574                     	ds	2
   521   000576                     _dbuf:
   522                           	callstack 0
   523   000576                     	ds	32
   524   000596                     _Dst:
   525                           	callstack 0
   526   000596                     	ds	2
   527   000598                     _Src:
   528                           	callstack 0
   529   000598                     	ds	2
   530                           
   531                           	psect	dataBANK5
   532   0005A6                     __pdataBANK5:
   533                           	callstack 0
   534   0005A6                     _ptr_cnt:
   535                           	callstack 0
   536   0005A6                     	ds	2
   537                           
   538                           	psect	cstackBANK5
   539   00059A                     __pcstackBANK5:
   540                           	callstack 0
   541   00059A                     ?_printf:
   542                           	callstack 0
   543   00059A                     printf@fmt:
   544                           	callstack 0
   545                           
   546                           ; 2 bytes @ 0x0
   547   00059A                     	ds	6
   548   0005A0                     printf@ap:
   549                           	callstack 0
   550                           
   551                           ; 2 bytes @ 0x6
   552   0005A0                     	ds	2
   553                           
   554                           	psect	cstackCOMRAM
   555   000501                     __pcstackCOMRAM:
   556                           	callstack 0
   557   000501                     ??_INT0_ISR:
   558   000501                     
   559                           ; 2 bytes @ 0x0
   560   000501                     	ds	2
   561   000503                     ??_INT1_ISR:
   562                           
   563                           ; 1 bytes @ 0x2
   564   000503                     	ds	2
   565   000505                     ??_INT2_ISR:
   566                           
   567                           ; 1 bytes @ 0x4
   568   000505                     	ds	2
   569   000507                     ??_DMA1_DMASCNTI_ISR:
   570                           
   571                           ; 1 bytes @ 0x6
   572   000507                     	ds	2
   573   000509                     ?___awdiv:
   574                           	callstack 0
   575   000509                     ?___awmod:
   576                           	callstack 0
   577   000509                     ?___lwdiv:
   578                           	callstack 0
   579   000509                     ?___lwmod:
   580                           	callstack 0
   581   000509                     _UART1_IsTxReady$722:
   582                           	callstack 0
   583   000509                     UART1_Write@txData:
   584                           	callstack 0
   585   000509                     trojan@input_symbol:
   586                           	callstack 0
   587   000509                     config_DMA_M2M@size:
   588                           	callstack 0
   589   000509                     UART1_FramingErrorCallbackRegister@callbackHandler:
   590                           	callstack 0
   591   000509                     UART1_OverrunErrorCallbackRegister@callbackHandler:
   592                           	callstack 0
   593   000509                     UART1_ParityErrorCallbackRegister@callbackHandler:
   594                           	callstack 0
   595   000509                     INT0_SetInterruptHandler@InterruptHandler:
   596                           	callstack 0
   597   000509                     INT1_SetInterruptHandler@InterruptHandler:
   598                           	callstack 0
   599   000509                     INT2_SetInterruptHandler@InterruptHandler:
   600                           	callstack 0
   601   000509                     Timer0_Write@timerVal:
   602                           	callstack 0
   603   000509                     Timer0_OverflowCallbackRegister@CallbackHandler:
   604                           	callstack 0
   605   000509                     DMA1_SetSCNTIInterruptHandler@InterruptHandler:
   606                           	callstack 0
   607   000509                     ___awdiv@dividend:
   608                           	callstack 0
   609   000509                     ___awmod@dividend:
   610                           	callstack 0
   611   000509                     ___lwdiv@dividend:
   612                           	callstack 0
   613   000509                     ___lwmod@dividend:
   614                           	callstack 0
   615                           
   616                           ; 2 bytes @ 0x8
   617   000509                     	ds	1
   618   00050A                     putch@txData:
   619                           	callstack 0
   620                           
   621                           ; 1 bytes @ 0x9
   622   00050A                     	ds	1
   623   00050B                     ??_Timer0_Initialize:
   624   00050B                     INTERRUPT_Initialize@state:
   625                           	callstack 0
   626   00050B                     trojan@i:
   627                           	callstack 0
   628   00050B                     ___awdiv@divisor:
   629                           	callstack 0
   630   00050B                     ___awmod@divisor:
   631                           	callstack 0
   632   00050B                     ___lwdiv@divisor:
   633                           	callstack 0
   634   00050B                     ___lwmod@divisor:
   635                           	callstack 0
   636   00050B                     fputc@c:
   637                           	callstack 0
   638                           
   639                           ; 2 bytes @ 0xA
   640   00050B                     	ds	2
   641   00050D                     ___awdiv@counter:
   642                           	callstack 0
   643   00050D                     ___awmod@counter:
   644                           	callstack 0
   645   00050D                     ___lwdiv@counter:
   646                           	callstack 0
   647   00050D                     ___lwmod@counter:
   648                           	callstack 0
   649   00050D                     fputc@fp:
   650                           	callstack 0
   651                           
   652                           ; 2 bytes @ 0xC
   653   00050D                     	ds	1
   654   00050E                     ___awdiv@sign:
   655                           	callstack 0
   656   00050E                     ___awmod@sign:
   657                           	callstack 0
   658   00050E                     ___lwdiv@quotient:
   659                           	callstack 0
   660                           
   661                           ; 2 bytes @ 0xD
   662   00050E                     	ds	1
   663   00050F                     ??_fputc:
   664   00050F                     ?_abs:
   665                           	callstack 0
   666   00050F                     ___awdiv@quotient:
   667                           	callstack 0
   668   00050F                     abs@a:
   669                           	callstack 0
   670                           
   671                           ; 2 bytes @ 0xE
   672   00050F                     	ds	2
   673   000511                     ??_abs:
   674                           
   675                           ; 1 bytes @ 0x10
   676   000511                     	ds	3
   677   000514                     fputs@s:
   678                           	callstack 0
   679                           
   680                           ; 2 bytes @ 0x13
   681   000514                     	ds	2
   682   000516                     fputs@fp:
   683                           	callstack 0
   684                           
   685                           ; 2 bytes @ 0x15
   686   000516                     	ds	2
   687   000518                     fputs@c:
   688                           	callstack 0
   689                           
   690                           ; 1 bytes @ 0x17
   691   000518                     	ds	1
   692   000519                     fputs@i:
   693                           	callstack 0
   694                           
   695                           ; 2 bytes @ 0x18
   696   000519                     	ds	2
   697   00051B                     pad@fp:
   698                           	callstack 0
   699                           
   700                           ; 2 bytes @ 0x1A
   701   00051B                     	ds	2
   702   00051D                     pad@buf:
   703                           	callstack 0
   704                           
   705                           ; 2 bytes @ 0x1C
   706   00051D                     	ds	2
   707   00051F                     pad@p:
   708                           	callstack 0
   709                           
   710                           ; 2 bytes @ 0x1E
   711   00051F                     	ds	2
   712   000521                     ??_pad:
   713                           
   714                           ; 1 bytes @ 0x20
   715   000521                     	ds	1
   716   000522                     pad@i:
   717                           	callstack 0
   718                           
   719                           ; 2 bytes @ 0x21
   720   000522                     	ds	2
   721   000524                     pad@w:
   722                           	callstack 0
   723                           
   724                           ; 2 bytes @ 0x23
   725   000524                     	ds	2
   726   000526                     dtoa@fp:
   727                           	callstack 0
   728   000526                     utoa@fp:
   729                           	callstack 0
   730                           
   731                           ; 2 bytes @ 0x25
   732   000526                     	ds	2
   733   000528                     dtoa@d:
   734                           	callstack 0
   735   000528                     utoa@d:
   736                           	callstack 0
   737                           
   738                           ; 2 bytes @ 0x27
   739   000528                     	ds	2
   740   00052A                     _dtoa$1895:
   741                           	callstack 0
   742   00052A                     utoa@w:
   743                           	callstack 0
   744                           
   745                           ; 2 bytes @ 0x29
   746   00052A                     	ds	2
   747   00052C                     dtoa@p:
   748                           	callstack 0
   749   00052C                     utoa@p:
   750                           	callstack 0
   751                           
   752                           ; 2 bytes @ 0x2B
   753   00052C                     	ds	2
   754   00052E                     dtoa@w:
   755                           	callstack 0
   756   00052E                     utoa@i:
   757                           	callstack 0
   758                           
   759                           ; 2 bytes @ 0x2D
   760   00052E                     	ds	2
   761   000530                     dtoa@s:
   762                           	callstack 0
   763                           
   764                           ; 1 bytes @ 0x2F
   765   000530                     	ds	1
   766   000531                     dtoa@i:
   767                           	callstack 0
   768                           
   769                           ; 2 bytes @ 0x30
   770   000531                     	ds	2
   771   000533                     vfpfcnvrt@fp:
   772                           	callstack 0
   773                           
   774                           ; 2 bytes @ 0x32
   775   000533                     	ds	2
   776   000535                     vfpfcnvrt@fmt:
   777                           	callstack 0
   778                           
   779                           ; 2 bytes @ 0x34
   780   000535                     	ds	2
   781   000537                     vfpfcnvrt@ap:
   782                           	callstack 0
   783                           
   784                           ; 2 bytes @ 0x36
   785   000537                     	ds	2
   786   000539                     ??_vfpfcnvrt:
   787                           
   788                           ; 1 bytes @ 0x38
   789   000539                     	ds	2
   790   00053B                     vfpfcnvrt@convarg:
   791                           	callstack 0
   792                           
   793                           ; 4 bytes @ 0x3A
   794   00053B                     	ds	4
   795   00053F                     vfpfcnvrt@cp:
   796                           	callstack 0
   797                           
   798                           ; 2 bytes @ 0x3E
   799   00053F                     	ds	2
   800   000541                     ?_vfprintf:
   801                           	callstack 0
   802   000541                     vfprintf@fp:
   803                           	callstack 0
   804                           
   805                           ; 2 bytes @ 0x40
   806   000541                     	ds	2
   807   000543                     vfprintf@fmt:
   808                           	callstack 0
   809                           
   810                           ; 2 bytes @ 0x42
   811   000543                     	ds	2
   812   000545                     vfprintf@ap:
   813                           	callstack 0
   814                           
   815                           ; 2 bytes @ 0x44
   816   000545                     	ds	2
   817   000547                     vfprintf@cfmt:
   818                           	callstack 0
   819                           
   820                           ; 2 bytes @ 0x46
   821   000547                     	ds	2
   822   000549                     
   823                           ; 1 bytes @ 0x48
   824 ;;
   825 ;;Main: autosize = 0, tempsize = 0, incstack = 0, save=0
   826 ;;
   827 ;; *************** function _main *****************
   828 ;; Defined at:
   829 ;;		line 184 in file "main.c"
   830 ;; Parameters:    Size  Location     Type
   831 ;;		None
   832 ;; Auto vars:     Size  Location     Type
   833 ;;		None
   834 ;; Return value:  Size  Location     Type
   835 ;;                  2  174[None  ] int 
   836 ;; Registers used:
   837 ;;		wreg, fsr1l, fsr1h, fsr2l, fsr2h, status,2, status,0, tblptrl, tblptrh, tblptru, cstack
   838 ;; Tracked objects:
   839 ;;		On entry : 0/0
   840 ;;		On exit  : 0/0
   841 ;;		Unchanged: 0/0
   842 ;; Data sizes:     COMRAM   BANK5   BANK6   BANK7   BANK8   BANK9  BANK10  BANK11  BANK12  BANK13  BANK14  BANK15  BANK1
      +6  BANK17  BANK18  BANK19  BANK20
   843 ;;      Params:         0       0       0       0       0       0       0       0       0       0       0       0       
      +0       0       0       0       0
   844 ;;      Locals:         0       0       0       0       0       0       0       0       0       0       0       0       
      +0       0       0       0       0
   845 ;;      Temps:          0       0       0       0       0       0       0       0       0       0       0       0       
      +0       0       0       0       0
   846 ;;      Totals:         0       0       0       0       0       0       0       0       0       0       0       0       
      +0       0       0       0       0
   847 ;;Total ram usage:        0 bytes
   848 ;; Hardware stack levels required when called: 14
   849 ;; This function calls:
   850 ;;		_SYSTEM_Initialize
   851 ;;		_covert_channel
   852 ;;		_printf
   853 ;; This function is called by:
   854 ;;		Startup code after reset
   855 ;; This function uses a non-reentrant model
   856 ;;
   857                           
   858                           	psect	text0
   859   0024C4                     __ptext0:
   860                           	callstack 0
   861   0024C4                     _main:
   862                           	callstack 113
   863   0024C4                     
   864                           ;main.c: 186:     SYSTEM_Initialize();
   865   0024C4  EC40  F012         	call	_SYSTEM_Initialize	;wreg free
   866   0024C8                     
   867                           ;main.c: 187:     (INTCON0bits.GIE = 1);
   868   0024C8  8ED6               	bsf	214,7,c	;volatile
   869   0024CA                     
   870                           ;main.c: 188:     printf("Helllo\n\r");
   871   0024CA  0E48               	movlw	low STR_2
   872   0024CC  0105               	movlb	5	; () banked
   873   0024CE  6F9A               	movwf	printf@fmt& (0+255),b
   874   0024D0  0E16               	movlw	high STR_2
   875   0024D2  6F9B               	movwf	(printf@fmt+1)& (0+255),b
   876   0024D4  EC2C  F012         	call	_printf	;wreg free
   877   0024D8                     
   878                           ;main.c: 189:     covert_channel();
   879   0024D8  EC0E  F011         	call	_covert_channel	;wreg free
   880   0024DC  EF5D  F000         	goto	start
   881   0024E0                     __end_of_main:
   882                           	callstack 0
   883                           
   884 ;; *************** function _covert_channel *****************
   885 ;; Defined at:
   886 ;;		line 170 in file "main.c"
   887 ;; Parameters:    Size  Location     Type
   888 ;;		None
   889 ;; Auto vars:     Size  Location     Type
   890 ;;		None
   891 ;; Return value:  Size  Location     Type
   892 ;;                  1    wreg      void 
   893 ;; Registers used:
   894 ;;		wreg, fsr1l, fsr1h, fsr2l, fsr2h, status,2, status,0, tblptrl, tblptrh, tblptru, cstack
   895 ;; Tracked objects:
   896 ;;		On entry : 0/0
   897 ;;		On exit  : 0/0
   898 ;;		Unchanged: 0/0
   899 ;; Data sizes:     COMRAM   BANK5   BANK6   BANK7   BANK8   BANK9  BANK10  BANK11  BANK12  BANK13  BANK14  BANK15  BANK1
      +6  BANK17  BANK18  BANK19  BANK20
   900 ;;      Params:         0       0       0       0       0       0       0       0       0       0       0       0       
      +0       0       0       0       0
   901 ;;      Locals:         0       0       0       0       0       0       0       0       0       0       0       0       
      +0       0       0       0       0
   902 ;;      Temps:          0       0       0       0       0       0       0       0       0       0       0       0       
      +0       0       0       0       0
   903 ;;      Totals:         0       0       0       0       0       0       0       0       0       0       0       0       
      +0       0       0       0       0
   904 ;;Total ram usage:        0 bytes
   905 ;; Hardware stack levels used: 1
   906 ;; Hardware stack levels required when called: 13
   907 ;; This function calls:
   908 ;;		_DMA1_SetSCNTIInterruptHandler
   909 ;;		_DMA1_StartTransfer
   910 ;;		_config_DMA_M2M
   911 ;;		_covert_channel_logic
   912 ;; This function is called by:
   913 ;;		_main
   914 ;; This function uses a non-reentrant model
   915 ;;
   916                           
   917                           	psect	text1
   918   00221C                     __ptext1:
   919                           	callstack 0
   920   00221C                     _covert_channel:
   921                           	callstack 113
   922   00221C                     
   923                           ;main.c: 171:   DMA1_SetSCNTIInterruptHandler(DMA_ISR);
   924   00221C  0EA6               	movlw	low _DMA_ISR
   925   00221E  6E09               	movwf	DMA1_SetSCNTIInterruptHandler@InterruptHandler^(0+1280),c
   926   002220  0E25               	movlw	high _DMA_ISR
   927   002222  6E0A               	movwf	(DMA1_SetSCNTIInterruptHandler@InterruptHandler+1)^(0+1280),c
   928   002224  ECF9  F012         	call	_DMA1_SetSCNTIInterruptHandler	;wreg free
   929   002228                     
   930                           ;main.c: 173:   config_DMA_M2M(2000);
   931   002228  0E07               	movlw	7
   932   00222A  6E0A               	movwf	(config_DMA_M2M@size+1)^(0+1280),c
   933   00222C  0ED0               	movlw	208
   934   00222E  6E09               	movwf	config_DMA_M2M@size^(0+1280),c
   935   002230  EC8A  F011         	call	_config_DMA_M2M	;wreg free
   936   002234                     
   937                           ;main.c: 175:   DMA1_StartTransfer();
   938   002234  ECE0  F012         	call	_DMA1_StartTransfer	;wreg free
   939   002238                     l3208:
   940                           
   941                           ;main.c: 177:     if(sync){
   942   002238  504F               	movf	_sync^(0+1280),w,c	;volatile
   943   00223A  1050               	iorwf	(_sync+1)^(0+1280),w,c	;volatile
   944   00223C  B4D8               	btfsc	status,2,c
   945   00223E  EF23  F011         	goto	u2061
   946   002242  EF25  F011         	goto	u2060
   947   002246                     u2061:
   948   002246  EF1C  F011         	goto	l3208
   949   00224A                     u2060:
   950   00224A                     
   951                           ;main.c: 178:       sync = 0;
   952   00224A  0E00               	movlw	0
   953   00224C  6E50               	movwf	(_sync+1)^(0+1280),c	;volatile
   954   00224E  0E00               	movlw	0
   955   002250  6E4F               	movwf	_sync^(0+1280),c	;volatile
   956   002252                     
   957                           ;main.c: 179:       covert_channel_logic();
   958   002252  EC76  F00E         	call	_covert_channel_logic	;wreg free
   959   002256  EF1C  F011         	goto	l3208
   960   00225A  0012               	return		;funcret
   961   00225C                     __end_of_covert_channel:
   962                           	callstack 0
   963                           
   964 ;; *************** function _covert_channel_logic *****************
   965 ;; Defined at:
   966 ;;		line 140 in file "main.c"
   967 ;; Parameters:    Size  Location     Type
   968 ;;		None
   969 ;; Auto vars:     Size  Location     Type
   970 ;;		None
   971 ;; Return value:  Size  Location     Type
   972 ;;                  1    wreg      void 
   973 ;; Registers used:
   974 ;;		wreg, fsr1l, fsr1h, fsr2l, fsr2h, status,2, status,0, tblptrl, tblptrh, tblptru, cstack
   975 ;; Tracked objects:
   976 ;;		On entry : 0/0
   977 ;;		On exit  : 0/0
   978 ;;		Unchanged: 0/0
   979 ;; Data sizes:     COMRAM   BANK5   BANK6   BANK7   BANK8   BANK9  BANK10  BANK11  BANK12  BANK13  BANK14  BANK15  BANK1
      +6  BANK17  BANK18  BANK19  BANK20
   980 ;;      Params:         0       0       0       0       0       0       0       0       0       0       0       0       
      +0       0       0       0       0
   981 ;;      Locals:         0       0       0       0       0       0       0       0       0       0       0       0       
      +0       0       0       0       0
   982 ;;      Temps:          0       0       0       0       0       0       0       0       0       0       0       0       
      +0       0       0       0       0
   983 ;;      Totals:         0       0       0       0       0       0       0       0       0       0       0       0       
      +0       0       0       0       0
   984 ;;Total ram usage:        0 bytes
   985 ;; Hardware stack levels used: 1
   986 ;; Hardware stack levels required when called: 12
   987 ;; This function calls:
   988 ;;		_DMA1_StartTransfer
   989 ;;		_Timer0_Start
   990 ;;		_Timer0_Write
   991 ;;		_printf
   992 ;;		_trojan
   993 ;; This function is called by:
   994 ;;		_covert_channel
   995 ;; This function uses a non-reentrant model
   996 ;;
   997                           
   998                           	psect	text2
   999   001CEC                     __ptext2:
  1000                           	callstack 0
  1001   001CEC                     _covert_channel_logic:
  1002                           	callstack 113
  1003   001CEC                     
  1004                           ;main.c: 141:   static uint8_t first = 1;;main.c: 142:   if(!first){
  1005   001CEC  5056               	movf	covert_channel_logic@first^(0+1280),w,c
  1006   001CEE  A4D8               	btfss	status,2,c
  1007   001CF0  EF7C  F00E         	goto	u2031
  1008   001CF4  EF7E  F00E         	goto	u2030
  1009   001CF8                     u2031:
  1010   001CF8  EF8F  F00E         	goto	l3180
  1011   001CFC                     u2030:
  1012   001CFC                     
  1013                           ;main.c: 143:     printf("(%d, %u)\r\n", input_symbol, *ptr_cnt);
  1014   001CFC  0E3D               	movlw	low STR_1
  1015   001CFE  0105               	movlb	5	; () banked
  1016   001D00  6F9A               	movwf	printf@fmt& (0+255),b
  1017   001D02  0E16               	movlw	high STR_1
  1018   001D04  6F9B               	movwf	(printf@fmt+1)& (0+255),b
  1019   001D06  C553  F59C         	movff	_input_symbol,?_printf+2	;volatile
  1020   001D0A  C554  F59D         	movff	_input_symbol+1,?_printf+3	;volatile
  1021   001D0E  C318 F59E          	movff	792,?_printf+4
  1022   001D12  C319 F59F          	movff	793,?_printf+5
  1023   001D16  EC2C  F012         	call	_printf	;wreg free
  1024   001D1A                     
  1025                           ;main.c: 144:     sample++;
  1026   001D1A  4A51               	infsnz	_sample^(0+1280),f,c	;volatile
  1027   001D1C  2A52               	incf	(_sample+1)^(0+1280),f,c	;volatile
  1028   001D1E                     l3180:
  1029                           
  1030                           ;main.c: 146:   first = 0;
  1031   001D1E  0E00               	movlw	0
  1032   001D20  6E56               	movwf	covert_channel_logic@first^(0+1280),c
  1033   001D22                     
  1034                           ;main.c: 148:   if(sample >= 100){
  1035   001D22  BE52               	btfsc	(_sample+1)^(0+1280),7,c	;volatile
  1036   001D24  EF9D  F00E         	goto	u2041
  1037   001D28  5052               	movf	(_sample+1)^(0+1280),w,c	;volatile
  1038   001D2A  E109               	bnz	u2040
  1039   001D2C  0E64               	movlw	100
  1040   001D2E  5C51               	subwf	_sample^(0+1280),w,c	;volatile
  1041   001D30  A0D8               	btfss	status,0,c
  1042   001D32  EF9D  F00E         	goto	u2041
  1043   001D36  EF9F  F00E         	goto	u2040
  1044   001D3A                     u2041:
  1045   001D3A  EFBA  F00E         	goto	l3194
  1046   001D3E                     u2040:
  1047   001D3E                     
  1048                           ;main.c: 149:     if(input_symbol < 256 -1){
  1049   001D3E  BE54               	btfsc	(_input_symbol+1)^(0+1280),7,c	;volatile
  1050   001D40  EFAC  F00E         	goto	u2050
  1051   001D44  5054               	movf	(_input_symbol+1)^(0+1280),w,c	;volatile
  1052   001D46  E106               	bnz	u2051
  1053   001D48  2853               	incf	_input_symbol^(0+1280),w,c	;volatile
  1054   001D4A  B0D8               	btfsc	status,0,c
  1055   001D4C  EFAA  F00E         	goto	u2051
  1056   001D50  EFAC  F00E         	goto	u2050
  1057   001D54                     u2051:
  1058   001D54  EFB4  F00E         	goto	l3190
  1059   001D58                     u2050:
  1060   001D58                     
  1061                           ;main.c: 150:       input_symbol++;
  1062   001D58  4A53               	infsnz	_input_symbol^(0+1280),f,c	;volatile
  1063   001D5A  2A54               	incf	(_input_symbol+1)^(0+1280),f,c	;volatile
  1064   001D5C                     
  1065                           ;main.c: 151:       sample = 0;
  1066   001D5C  0E00               	movlw	0
  1067   001D5E  6E52               	movwf	(_sample+1)^(0+1280),c	;volatile
  1068   001D60  0E00               	movlw	0
  1069   001D62  6E51               	movwf	_sample^(0+1280),c	;volatile
  1070                           
  1071                           ;main.c: 152:     }
  1072   001D64  EFBA  F00E         	goto	l3194
  1073   001D68                     l3190:
  1074                           
  1075                           ;main.c: 154:       input_symbol = 0;
  1076   001D68  0E00               	movlw	0
  1077   001D6A  6E54               	movwf	(_input_symbol+1)^(0+1280),c	;volatile
  1078   001D6C  0E00               	movlw	0
  1079   001D6E  6E53               	movwf	_input_symbol^(0+1280),c	;volatile
  1080   001D70  EFCA  F00E         	goto	l163
  1081   001D74                     l3194:
  1082                           
  1083                           ;main.c: 159:   Timer0_Write(0);
  1084   001D74  0E00               	movlw	0
  1085   001D76  6E0A               	movwf	(Timer0_Write@timerVal+1)^(0+1280),c
  1086   001D78  0E00               	movlw	0
  1087   001D7A  6E09               	movwf	Timer0_Write@timerVal^(0+1280),c
  1088   001D7C  ECDA  F012         	call	_Timer0_Write	;wreg free
  1089   001D80                     
  1090                           ;main.c: 160:   Timer0_Start();
  1091   001D80  EC02  F013         	call	_Timer0_Start	;wreg free
  1092   001D84                     
  1093                           ;main.c: 162:   DMA1_StartTransfer();
  1094   001D84  ECE0  F012         	call	_DMA1_StartTransfer	;wreg free
  1095   001D88                     
  1096                           ;main.c: 166:     trojan(input_symbol);
  1097   001D88  C553  F509         	movff	_input_symbol,trojan@input_symbol	;volatile
  1098   001D8C  C554  F50A         	movff	_input_symbol+1,trojan@input_symbol+1	;volatile
  1099   001D90  ECC9  F00F         	call	_trojan	;wreg free
  1100   001D94                     l163:
  1101   001D94  0012               	return		;funcret
  1102   001D96                     __end_of_covert_channel_logic:
  1103                           	callstack 0
  1104                           
  1105 ;; *************** function _trojan *****************
  1106 ;; Defined at:
  1107 ;;		line 95 in file "main.c"
  1108 ;; Parameters:    Size  Location     Type
  1109 ;;  input_symbol    2    8[COMRAM] unsigned short 
  1110 ;; Auto vars:     Size  Location     Type
  1111 ;;  i               2   10[COMRAM] unsigned short 
  1112 ;; Return value:  Size  Location     Type
  1113 ;;                  1    wreg      void 
  1114 ;; Registers used:
  1115 ;;		wreg, status,2, status,0
  1116 ;; Tracked objects:
  1117 ;;		On entry : 0/0
  1118 ;;		On exit  : 0/0
  1119 ;;		Unchanged: 0/0
  1120 ;; Data sizes:     COMRAM   BANK5   BANK6   BANK7   BANK8   BANK9  BANK10  BANK11  BANK12  BANK13  BANK14  BANK15  BANK1
      +6  BANK17  BANK18  BANK19  BANK20
  1121 ;;      Params:         2       0       0       0       0       0       0       0       0       0       0       0       
      +0       0       0       0       0
  1122 ;;      Locals:         2       0       0       0       0       0       0       0       0       0       0       0       
      +0       0       0       0       0
  1123 ;;      Temps:          0       0       0       0       0       0       0       0       0       0       0       0       
      +0       0       0       0       0
  1124 ;;      Totals:         4       0       0       0       0       0       0       0       0       0       0       0       
      +0       0       0       0       0
  1125 ;;Total ram usage:        4 bytes
  1126 ;; Hardware stack levels used: 1
  1127 ;; Hardware stack levels required when called: 3
  1128 ;; This function calls:
  1129 ;;		Nothing
  1130 ;; This function is called by:
  1131 ;;		_covert_channel_logic
  1132 ;; This function uses a non-reentrant model
  1133 ;;
  1134                           
  1135                           	psect	text3
  1136   001F92                     __ptext3:
  1137                           	callstack 0
  1138   001F92                     _trojan:
  1139                           	callstack 121
  1140   001F92                     
  1141                           ;main.c: 97:   for(uint16_t i=0;i < 256; i++){
  1142   001F92  0E00               	movlw	0
  1143   001F94  6E0C               	movwf	(trojan@i+1)^(0+1280),c
  1144   001F96  0E00               	movlw	0
  1145   001F98  6E0B               	movwf	trojan@i^(0+1280),c
  1146   001F9A                     l2574:
  1147                           
  1148                           ;main.c: 98:     if(i < input_symbol){
  1149   001F9A  5009               	movf	trojan@input_symbol^(0+1280),w,c
  1150   001F9C  5C0B               	subwf	trojan@i^(0+1280),w,c
  1151   001F9E  500A               	movf	(trojan@input_symbol+1)^(0+1280),w,c
  1152   001FA0  580C               	subwfb	(trojan@i+1)^(0+1280),w,c
  1153   001FA2  B0D8               	btfsc	status,0,c
  1154   001FA4  EFD6  F00F         	goto	u1281
  1155   001FA8  EFD8  F00F         	goto	u1280
  1156   001FAC                     u1281:
  1157   001FAC  EFE2  F00F         	goto	l2576
  1158   001FB0                     u1280:
  1159   001FB0  6F00               	movwf	0,b	;# 
  1160   001FB2  6F00               	movwf	0,b	;# 
  1161   001FB4  6F00               	movwf	0,b	;# 
  1162   001FB6  6F00               	movwf	0,b	;# 
  1163   001FB8  6F00               	movwf	0,b	;# 
  1164   001FBA  6F00               	movwf	0,b	;# 
  1165   001FBC  6F00               	movwf	0,b	;# 
  1166   001FBE  6F00               	movwf	0,b	;# 
  1167   001FC0  6F00               	movwf	0,b	;# 
  1168   001FC2  6F00               	movwf	0,b	;# 
  1169   001FC4                     l2576:
  1170                           
  1171                           ;main.c: 106:     if(i >= input_symbol){
  1172   001FC4  5009               	movf	trojan@input_symbol^(0+1280),w,c
  1173   001FC6  5C0B               	subwf	trojan@i^(0+1280),w,c
  1174   001FC8  500A               	movf	(trojan@input_symbol+1)^(0+1280),w,c
  1175   001FCA  580C               	subwfb	(trojan@i+1)^(0+1280),w,c
  1176   001FCC  A0D8               	btfss	status,0,c
  1177   001FCE  EFEB  F00F         	goto	u1291
  1178   001FD2  EFED  F00F         	goto	u1290
  1179   001FD6                     u1291:
  1180   001FD6  EFF7  F00F         	goto	l2578
  1181   001FDA                     u1290:
  1182   001FDA  F000               	nop		;# 
  1183   001FDC  F000               	nop		;# 
  1184   001FDE  F000               	nop		;# 
  1185   001FE0  F000               	nop		;# 
  1186   001FE2  F000               	nop		;# 
  1187   001FE4  F000               	nop		;# 
  1188   001FE6  F000               	nop		;# 
  1189   001FE8  F000               	nop		;# 
  1190   001FEA  F000               	nop		;# 
  1191   001FEC  F000               	nop		;# 
  1192   001FEE                     l2578:
  1193                           
  1194                           ;main.c: 109:   }
  1195   001FEE  4A0B               	infsnz	trojan@i^(0+1280),f,c
  1196   001FF0  2A0C               	incf	(trojan@i+1)^(0+1280),f,c
  1197   001FF2  040C               	decf	(trojan@i+1)^(0+1280),w,c
  1198   001FF4  A0D8               	btfss	status,0,c
  1199   001FF6  EFFF  F00F         	goto	u1301
  1200   001FFA  EF01  F010         	goto	u1300
  1201   001FFE                     u1301:
  1202   001FFE  EFCD  F00F         	goto	l2574
  1203   002002                     u1300:
  1204   002002  0012               	return		;funcret
  1205   002004                     __end_of_trojan:
  1206                           	callstack 0
  1207                           
  1208 ;; *************** function _printf *****************
  1209 ;; Defined at:
  1210 ;;		line 5 in file "/opt/microchip/xc8/v2.41/pic/sources/c99/common/printf.c"
  1211 ;; Parameters:    Size  Location     Type
  1212 ;;  fmt             2    0[BANK5 ] PTR const unsigned char 
  1213 ;;		 -> STR_2(9), STR_1(11), 
  1214 ;; Auto vars:     Size  Location     Type
  1215 ;;  ap              2    6[BANK5 ] PTR void [1]
  1216 ;;		 -> ?_printf(2), 
  1217 ;;  ret             2    0        int 
  1218 ;; Return value:  Size  Location     Type
  1219 ;;                  2    0[BANK5 ] int 
  1220 ;; Registers used:
  1221 ;;		wreg, fsr1l, fsr1h, fsr2l, fsr2h, status,2, status,0, tblptrl, tblptrh, tblptru, cstack
  1222 ;; Tracked objects:
  1223 ;;		On entry : 0/0
  1224 ;;		On exit  : 0/0
  1225 ;;		Unchanged: 0/0
  1226 ;; Data sizes:     COMRAM   BANK5   BANK6   BANK7   BANK8   BANK9  BANK10  BANK11  BANK12  BANK13  BANK14  BANK15  BANK1
      +6  BANK17  BANK18  BANK19  BANK20
  1227 ;;      Params:         0       6       0       0       0       0       0       0       0       0       0       0       
      +0       0       0       0       0
  1228 ;;      Locals:         0       2       0       0       0       0       0       0       0       0       0       0       
      +0       0       0       0       0
  1229 ;;      Temps:          0       0       0       0       0       0       0       0       0       0       0       0       
      +0       0       0       0       0
  1230 ;;      Totals:         0       8       0       0       0       0       0       0       0       0       0       0       
      +0       0       0       0       0
  1231 ;;Total ram usage:        8 bytes
  1232 ;; Hardware stack levels used: 1
  1233 ;; Hardware stack levels required when called: 11
  1234 ;; This function calls:
  1235 ;;		_vfprintf
  1236 ;; This function is called by:
  1237 ;;		_covert_channel_logic
  1238 ;;		_main
  1239 ;; This function uses a non-reentrant model
  1240 ;;
  1241                           
  1242                           	psect	text4
  1243   002458                     __ptext4:
  1244                           	callstack 0
  1245   002458                     _printf:
  1246                           	callstack 115
  1247   002458  0E9C               	movlw	low (?_printf+2)
  1248   00245A  0105               	movlb	5	; () banked
  1249   00245C  6FA0               	movwf	printf@ap& (0+255),b
  1250   00245E  0E05               	movlw	high (?_printf+2)
  1251   002460  6FA1               	movwf	(printf@ap+1)& (0+255),b
  1252   002462                     
  1253                           ; BSR set to: 5
  1254   002462  0E00               	movlw	0
  1255   002464  6E41               	movwf	vfprintf@fp^(0+1280),c
  1256   002466  0E00               	movlw	0
  1257   002468  6E42               	movwf	(vfprintf@fp+1)^(0+1280),c
  1258   00246A  C59A  F543         	movff	printf@fmt,vfprintf@fmt
  1259   00246E  C59B  F544         	movff	printf@fmt+1,vfprintf@fmt+1
  1260   002472  0EA0               	movlw	low printf@ap
  1261   002474  6E45               	movwf	vfprintf@ap^(0+1280),c
  1262   002476  0E05               	movlw	high printf@ap
  1263   002478  6E46               	movwf	(vfprintf@ap+1)^(0+1280),c
  1264   00247A  ECC4  F010         	call	_vfprintf	;wreg free
  1265   00247E  0012               	return		;funcret
  1266   002480                     __end_of_printf:
  1267                           	callstack 0
  1268                           
  1269 ;; *************** function _vfprintf *****************
  1270 ;; Defined at:
  1271 ;;		line 1546 in file "/opt/microchip/xc8/v2.41/pic/sources/c99/common/doprnt.c"
  1272 ;; Parameters:    Size  Location     Type
  1273 ;;  fp              2   64[COMRAM] PTR struct _IO_FILE
  1274 ;;		 -> NULL(0), 
  1275 ;;  fmt             2   66[COMRAM] PTR const unsigned char 
  1276 ;;		 -> STR_2(9), STR_1(11), 
  1277 ;;  ap              2   68[COMRAM] PTR PTR void 
  1278 ;;		 -> printf@ap(2), 
  1279 ;; Auto vars:     Size  Location     Type
  1280 ;;  cfmt            2   70[COMRAM] PTR unsigned char 
  1281 ;;		 -> STR_2(9), STR_1(11), 
  1282 ;; Return value:  Size  Location     Type
  1283 ;;                  2   64[COMRAM] int 
  1284 ;; Registers used:
  1285 ;;		wreg, fsr1l, fsr1h, fsr2l, fsr2h, status,2, status,0, tblptrl, tblptrh, tblptru, cstack
  1286 ;; Tracked objects:
  1287 ;;		On entry : 0/0
  1288 ;;		On exit  : 0/0
  1289 ;;		Unchanged: 0/0
  1290 ;; Data sizes:     COMRAM   BANK5   BANK6   BANK7   BANK8   BANK9  BANK10  BANK11  BANK12  BANK13  BANK14  BANK15  BANK1
      +6  BANK17  BANK18  BANK19  BANK20
  1291 ;;      Params:         6       0       0       0       0       0       0       0       0       0       0       0       
      +0       0       0       0       0
  1292 ;;      Locals:         2       0       0       0       0       0       0       0       0       0       0       0       
      +0       0       0       0       0
  1293 ;;      Temps:          0       0       0       0       0       0       0       0       0       0       0       0       
      +0       0       0       0       0
  1294 ;;      Totals:         8       0       0       0       0       0       0       0       0       0       0       0       
      +0       0       0       0       0
  1295 ;;Total ram usage:        8 bytes
  1296 ;; Hardware stack levels used: 1
  1297 ;; Hardware stack levels required when called: 10
  1298 ;; This function calls:
  1299 ;;		_vfpfcnvrt
  1300 ;; This function is called by:
  1301 ;;		_printf
  1302 ;; This function uses a non-reentrant model
  1303 ;;
  1304                           
  1305                           	psect	text5
  1306   002188                     __ptext5:
  1307                           	callstack 0
  1308   002188                     _vfprintf:
  1309                           	callstack 115
  1310   002188                     
  1311                           ;/opt/microchip/xc8/v2.41/pic/sources/c99/common/doprnt.c: 1546: int vfprintf(FILE *fp, 
      +                          const char *fmt, va_list ap);/opt/microchip/xc8/v2.41/pic/sources/c99/common/doprnt.c: 1
      +                          547: {;/opt/microchip/xc8/v2.41/pic/sources/c99/common/doprnt.c: 1549:     char *cfmt;;/
      +                          opt/microchip/xc8/v2.41/pic/sources/c99/common/doprnt.c: 1551:     cfmt = (char *)fmt;
  1312   002188  C543  F547         	movff	vfprintf@fmt,vfprintf@cfmt
  1313   00218C  C544  F548         	movff	vfprintf@fmt+1,vfprintf@cfmt+1
  1314                           
  1315                           ;/opt/microchip/xc8/v2.41/pic/sources/c99/common/doprnt.c: 1555:     while (*cfmt) {
  1316   002190  EFD8  F010         	goto	l3162
  1317   002194                     l3160:
  1318                           
  1319                           ;/opt/microchip/xc8/v2.41/pic/sources/c99/common/doprnt.c: 1559:    vfpfcnvrt(fp, &cfmt,
      +                           ap);
  1320   002194  C541  F533         	movff	vfprintf@fp,vfpfcnvrt@fp
  1321   002198  C542  F534         	movff	vfprintf@fp+1,vfpfcnvrt@fp+1
  1322   00219C  0E47               	movlw	low vfprintf@cfmt
  1323   00219E  6E35               	movwf	vfpfcnvrt@fmt^(0+1280),c
  1324   0021A0  0E05               	movlw	high vfprintf@cfmt
  1325   0021A2  6E36               	movwf	(vfpfcnvrt@fmt+1)^(0+1280),c
  1326   0021A4  C545  F537         	movff	vfprintf@ap,vfpfcnvrt@ap
  1327   0021A8  C546  F538         	movff	vfprintf@ap+1,vfpfcnvrt@ap+1
  1328   0021AC  EC29  F00B         	call	_vfpfcnvrt	;wreg free
  1329   0021B0                     l3162:
  1330                           
  1331                           ;/opt/microchip/xc8/v2.41/pic/sources/c99/common/doprnt.c: 1555:     while (*cfmt) {
  1332   0021B0  C547  F4F6         	movff	vfprintf@cfmt,tblptrl
  1333   0021B4  C548  F4F7         	movff	vfprintf@cfmt+1,tblptrh
  1334   0021B8                     	if	1	;Program memory is < 0x10000, tblptru is always zero
  1335   0021B8  6AF8               	clrf	tblptru,c
  1336   0021BA                     	endif
  1337   0021BA                     	if	0	;tblptru may be non-zero
  1338   0021BA                     	endif
  1339   0021BA  0008               	tblrd		*
  1340   0021BC  50F5               	movf	tablat,w,c
  1341   0021BE  0900               	iorlw	0
  1342   0021C0  A4D8               	btfss	status,2,c
  1343   0021C2  EFE5  F010         	goto	u2021
  1344   0021C6  EFE7  F010         	goto	u2020
  1345   0021CA                     u2021:
  1346   0021CA  EFCA  F010         	goto	l3160
  1347   0021CE                     u2020:
  1348   0021CE                     
  1349                           ;/opt/microchip/xc8/v2.41/pic/sources/c99/common/doprnt.c: 1564:  return 0;
  1350   0021CE  0E00               	movlw	0
  1351   0021D0  6E42               	movwf	(?_vfprintf+1)^(0+1280),c
  1352   0021D2  0E00               	movlw	0
  1353   0021D4  6E41               	movwf	?_vfprintf^(0+1280),c
  1354   0021D6  0012               	return		;funcret
  1355   0021D8                     __end_of_vfprintf:
  1356                           	callstack 0
  1357                           
  1358 ;; *************** function _vfpfcnvrt *****************
  1359 ;; Defined at:
  1360 ;;		line 1048 in file "/opt/microchip/xc8/v2.41/pic/sources/c99/common/doprnt.c"
  1361 ;; Parameters:    Size  Location     Type
  1362 ;;  fp              2   50[COMRAM] PTR struct _IO_FILE
  1363 ;;		 -> NULL(0), 
  1364 ;;  fmt             2   52[COMRAM] PTR PTR unsigned char 
  1365 ;;		 -> vfprintf@cfmt(2), 
  1366 ;;  ap              2   54[COMRAM] PTR PTR void 
  1367 ;;		 -> printf@ap(2), 
  1368 ;; Auto vars:     Size  Location     Type
  1369 ;;  convarg         4   58[COMRAM] struct .
  1370 ;;  cp              2   62[COMRAM] PTR unsigned char 
  1371 ;;		 -> STR_2(9), STR_1(11), 
  1372 ;;  i               2    0        int 
  1373 ;;  done            2    0        int 
  1374 ;;  c               1    0        unsigned char 
  1375 ;; Return value:  Size  Location     Type
  1376 ;;                  1    wreg      void 
  1377 ;; Registers used:
  1378 ;;		wreg, fsr1l, fsr1h, fsr2l, fsr2h, status,2, status,0, tblptrl, tblptrh, tblptru, cstack
  1379 ;; Tracked objects:
  1380 ;;		On entry : 0/0
  1381 ;;		On exit  : 0/0
  1382 ;;		Unchanged: 0/0
  1383 ;; Data sizes:     COMRAM   BANK5   BANK6   BANK7   BANK8   BANK9  BANK10  BANK11  BANK12  BANK13  BANK14  BANK15  BANK1
      +6  BANK17  BANK18  BANK19  BANK20
  1384 ;;      Params:         6       0       0       0       0       0       0       0       0       0       0       0       
      +0       0       0       0       0
  1385 ;;      Locals:         6       0       0       0       0       0       0       0       0       0       0       0       
      +0       0       0       0       0
  1386 ;;      Temps:          2       0       0       0       0       0       0       0       0       0       0       0       
      +0       0       0       0       0
  1387 ;;      Totals:        14       0       0       0       0       0       0       0       0       0       0       0       
      +0       0       0       0       0
  1388 ;;Total ram usage:       14 bytes
  1389 ;; Hardware stack levels used: 1
  1390 ;; Hardware stack levels required when called: 9
  1391 ;; This function calls:
  1392 ;;		_dtoa
  1393 ;;		_fputc
  1394 ;;		_utoa
  1395 ;; This function is called by:
  1396 ;;		_vfprintf
  1397 ;; This function uses a non-reentrant model
  1398 ;;
  1399                           
  1400                           	psect	text6
  1401   001652                     __ptext6:
  1402                           	callstack 0
  1403   001652                     _vfpfcnvrt:
  1404                           	callstack 115
  1405   001652                     
  1406                           ;/opt/microchip/xc8/v2.41/pic/sources/c99/common/doprnt.c: 1048: vfpfcnvrt(FILE *fp, cha
      +                          r *fmt[], va_list ap);/opt/microchip/xc8/v2.41/pic/sources/c99/common/doprnt.c: 1049: {;
      +                          /opt/microchip/xc8/v2.41/pic/sources/c99/common/doprnt.c: 1050:     char c, *cp;;/opt/mi
      +                          crochip/xc8/v2.41/pic/sources/c99/common/doprnt.c: 1051:     int done, i;;/opt/microchip
      +                          /xc8/v2.41/pic/sources/c99/common/doprnt.c: 1059:  } convarg;;/opt/microchip/xc8/v2.41/p
      +                          ic/sources/c99/common/doprnt.c: 1062:     if ((*fmt)[0] == '%') {
  1407   001652  C535  F4D9         	movff	vfpfcnvrt@fmt,fsr2l
  1408   001656  C536  F4DA         	movff	vfpfcnvrt@fmt+1,fsr2h
  1409   00165A  C4DE F4F6          	movff	postinc2,tblptrl
  1410   00165E  C4DD F4F7          	movff	postdec2,tblptrh
  1411   001662                     	if	1	;Program memory is < 0x10000, tblptru is always zero
  1412   001662  6AF8               	clrf	tblptru,c
  1413   001664                     	endif
  1414   001664                     	if	0	;tblptru may be non-zero
  1415   001664                     	endif
  1416   001664  0008               	tblrd		*
  1417   001666  50F5               	movf	tablat,w,c
  1418   001668  0A25               	xorlw	37
  1419   00166A  A4D8               	btfss	status,2,c
  1420   00166C  EF3A  F00B         	goto	u1981
  1421   001670  EF3C  F00B         	goto	u1980
  1422   001674                     u1981:
  1423   001674  EFFF  F00B         	goto	l3146
  1424   001678                     u1980:
  1425   001678                     
  1426                           ;/opt/microchip/xc8/v2.41/pic/sources/c99/common/doprnt.c: 1063:         ++*fmt;
  1427   001678  C535  F4D9         	movff	vfpfcnvrt@fmt,fsr2l
  1428   00167C  C536  F4DA         	movff	vfpfcnvrt@fmt+1,fsr2h
  1429   001680  2ADE               	incf	postinc2,f,c
  1430   001682  0E00               	movlw	0
  1431   001684  22DD               	addwfc	postdec2,f,c
  1432   001686                     
  1433                           ;/opt/microchip/xc8/v2.41/pic/sources/c99/common/doprnt.c: 1065:         flags = width =
      +                           0;
  1434   001686  0E00               	movlw	0
  1435   001688  0105               	movlb	5	; () banked
  1436   00168A  6F61               	movwf	(_width+1)& (0+255),b
  1437   00168C  0E00               	movlw	0
  1438   00168E  6F60               	movwf	_width& (0+255),b
  1439   001690  C560  F555         	movff	_width,_flags
  1440   001694                     
  1441                           ; BSR set to: 5
  1442                           ;/opt/microchip/xc8/v2.41/pic/sources/c99/common/doprnt.c: 1066:         prec = -1;
  1443   001694  6849               	setf	_prec^(0+1280),c
  1444   001696  684A               	setf	(_prec+1)^(0+1280),c
  1445   001698                     
  1446                           ; BSR set to: 5
  1447                           ;/opt/microchip/xc8/v2.41/pic/sources/c99/common/doprnt.c: 1143:   cp = *fmt;
  1448   001698  C535  F4D9         	movff	vfpfcnvrt@fmt,fsr2l
  1449   00169C  C536  F4DA         	movff	vfpfcnvrt@fmt+1,fsr2h
  1450   0016A0  C4DE F53F          	movff	postinc2,vfpfcnvrt@cp
  1451   0016A4  C4DD F540          	movff	postdec2,vfpfcnvrt@cp+1
  1452   0016A8                     
  1453                           ; BSR set to: 5
  1454                           ;/opt/microchip/xc8/v2.41/pic/sources/c99/common/doprnt.c: 1213:   if (*cp == 'd' || *cp
      +                           == 'i') {
  1455   0016A8  C53F  F4F6         	movff	vfpfcnvrt@cp,tblptrl
  1456   0016AC  C540  F4F7         	movff	vfpfcnvrt@cp+1,tblptrh
  1457   0016B0                     	if	1	;Program memory is < 0x10000, tblptru is always zero
  1458   0016B0  6AF8               	clrf	tblptru,c
  1459   0016B2                     	endif
  1460   0016B2                     	if	0	;tblptru may be non-zero
  1461   0016B2                     	endif
  1462   0016B2  0008               	tblrd		*
  1463   0016B4  50F5               	movf	tablat,w,c
  1464   0016B6  0A64               	xorlw	100
  1465   0016B8  B4D8               	btfsc	status,2,c
  1466   0016BA  EF61  F00B         	goto	u1991
  1467   0016BE  EF63  F00B         	goto	u1990
  1468   0016C2                     u1991:
  1469   0016C2  EF72  F00B         	goto	l3124
  1470   0016C6                     u1990:
  1471   0016C6                     
  1472                           ; BSR set to: 5
  1473   0016C6  C53F  F4F6         	movff	vfpfcnvrt@cp,tblptrl
  1474   0016CA  C540  F4F7         	movff	vfpfcnvrt@cp+1,tblptrh
  1475   0016CE                     	if	1	;Program memory is < 0x10000, tblptru is always zero
  1476   0016CE  6AF8               	clrf	tblptru,c
  1477   0016D0                     	endif
  1478   0016D0                     	if	0	;tblptru may be non-zero
  1479   0016D0                     	endif
  1480   0016D0  0008               	tblrd		*
  1481   0016D2  50F5               	movf	tablat,w,c
  1482   0016D4  0A69               	xorlw	105
  1483   0016D6  A4D8               	btfss	status,2,c
  1484   0016D8  EF70  F00B         	goto	u2001
  1485   0016DC  EF72  F00B         	goto	u2000
  1486   0016E0                     u2001:
  1487   0016E0  EFA0  F00B         	goto	l3130
  1488   0016E4                     u2000:
  1489   0016E4                     l3124:
  1490                           
  1491                           ; BSR set to: 5
  1492                           ;/opt/microchip/xc8/v2.41/pic/sources/c99/common/doprnt.c: 1256:    convarg.sint = (vfpf
      +                          _sint_t)(int)(*(int *)__va_arg(*(int **)ap, (int)0));
  1493   0016E4  C537  F4D9         	movff	vfpfcnvrt@ap,fsr2l
  1494   0016E8  C538  F4DA         	movff	vfpfcnvrt@ap+1,fsr2h
  1495   0016EC  C4DF F539          	movff	indf2,??_vfpfcnvrt
  1496   0016F0  0E02               	movlw	2
  1497   0016F2  26DE               	addwf	postinc2,f,c
  1498   0016F4  C4DF F53A          	movff	indf2,??_vfpfcnvrt+1
  1499   0016F8  0E00               	movlw	0
  1500   0016FA  22DD               	addwfc	postdec2,f,c
  1501   0016FC  C539  F4D9         	movff	??_vfpfcnvrt,fsr2l
  1502   001700  C53A  F4DA         	movff	??_vfpfcnvrt+1,fsr2h
  1503   001704  C4DE F53B          	movff	postinc2,vfpfcnvrt@convarg
  1504   001708  C4DD F53C          	movff	postdec2,vfpfcnvrt@convarg+1
  1505                           
  1506                           ;/opt/microchip/xc8/v2.41/pic/sources/c99/common/doprnt.c: 1258:    *fmt = cp+1;
  1507   00170C  0E01               	movlw	1
  1508   00170E  243F               	addwf	vfpfcnvrt@cp^(0+1280),w,c
  1509   001710  6E39               	movwf	??_vfpfcnvrt^(0+1280),c
  1510   001712  0E00               	movlw	0
  1511   001714  2040               	addwfc	(vfpfcnvrt@cp+1)^(0+1280),w,c
  1512   001716  6E3A               	movwf	(??_vfpfcnvrt+1)^(0+1280),c
  1513   001718  C535  F4D9         	movff	vfpfcnvrt@fmt,fsr2l
  1514   00171C  C536  F4DA         	movff	vfpfcnvrt@fmt+1,fsr2h
  1515   001720  C539  F4DE         	movff	??_vfpfcnvrt,postinc2
  1516   001724  C53A  F4DD         	movff	??_vfpfcnvrt+1,postdec2
  1517   001728                     
  1518                           ; BSR set to: 5
  1519                           ;/opt/microchip/xc8/v2.41/pic/sources/c99/common/doprnt.c: 1259:    return (void) dtoa(f
      +                          p, convarg.sint);;	Return value of _vfpfcnvrt is never used
  1520   001728  C533  F526         	movff	vfpfcnvrt@fp,dtoa@fp
  1521   00172C  C534  F527         	movff	vfpfcnvrt@fp+1,dtoa@fp+1
  1522   001730  C53B  F528         	movff	vfpfcnvrt@convarg,dtoa@d
  1523   001734  C53C  F529         	movff	vfpfcnvrt@convarg+1,dtoa@d+1
  1524   001738  EC15  F00C         	call	_dtoa	;wreg free
  1525   00173C  EF14  F00C         	goto	l1479
  1526   001740                     l3130:
  1527                           
  1528                           ; BSR set to: 5
  1529   001740  C53F  F4F6         	movff	vfpfcnvrt@cp,tblptrl
  1530   001744  C540  F4F7         	movff	vfpfcnvrt@cp+1,tblptrh
  1531   001748                     	if	1	;Program memory is < 0x10000, tblptru is always zero
  1532   001748  6AF8               	clrf	tblptru,c
  1533   00174A                     	endif
  1534   00174A                     	if	0	;tblptru may be non-zero
  1535   00174A                     	endif
  1536   00174A  0008               	tblrd		*
  1537   00174C  50F5               	movf	tablat,w,c
  1538   00174E  0A75               	xorlw	117
  1539   001750  A4D8               	btfss	status,2,c
  1540   001752  EFAD  F00B         	goto	u2011
  1541   001756  EFAF  F00B         	goto	u2010
  1542   00175A                     u2011:
  1543   00175A  EFF6  F00B         	goto	l3142
  1544   00175E                     u2010:
  1545   00175E                     
  1546                           ; BSR set to: 5
  1547                           ;/opt/microchip/xc8/v2.41/pic/sources/c99/common/doprnt.c: 1278:     ) {;/opt/microchip/
      +                          xc8/v2.41/pic/sources/c99/common/doprnt.c: 1321:    convarg.uint = (vfpf_uint_t)(unsigne
      +                          d int)(*(unsigned int *)__va_arg(*(unsigned int **)ap, (unsigned int)0));
  1548   00175E  C537  F4D9         	movff	vfpfcnvrt@ap,fsr2l
  1549   001762  C538  F4DA         	movff	vfpfcnvrt@ap+1,fsr2h
  1550   001766  C4DF F539          	movff	indf2,??_vfpfcnvrt
  1551   00176A  0E02               	movlw	2
  1552   00176C  26DE               	addwf	postinc2,f,c
  1553   00176E  C4DF F53A          	movff	indf2,??_vfpfcnvrt+1
  1554   001772  0E00               	movlw	0
  1555   001774  22DD               	addwfc	postdec2,f,c
  1556   001776  C539  F4D9         	movff	??_vfpfcnvrt,fsr2l
  1557   00177A  C53A  F4DA         	movff	??_vfpfcnvrt+1,fsr2h
  1558   00177E  C4DE F53B          	movff	postinc2,vfpfcnvrt@convarg
  1559   001782  C4DD F53C          	movff	postdec2,vfpfcnvrt@convarg+1
  1560                           
  1561                           ;/opt/microchip/xc8/v2.41/pic/sources/c99/common/doprnt.c: 1323:    *fmt = cp+1;
  1562   001786  0E01               	movlw	1
  1563   001788  243F               	addwf	vfpfcnvrt@cp^(0+1280),w,c
  1564   00178A  6E39               	movwf	??_vfpfcnvrt^(0+1280),c
  1565   00178C  0E00               	movlw	0
  1566   00178E  2040               	addwfc	(vfpfcnvrt@cp+1)^(0+1280),w,c
  1567   001790  6E3A               	movwf	(??_vfpfcnvrt+1)^(0+1280),c
  1568   001792  C535  F4D9         	movff	vfpfcnvrt@fmt,fsr2l
  1569   001796  C536  F4DA         	movff	vfpfcnvrt@fmt+1,fsr2h
  1570   00179A  C539  F4DE         	movff	??_vfpfcnvrt,postinc2
  1571   00179E  C53A  F4DD         	movff	??_vfpfcnvrt+1,postdec2
  1572                           
  1573                           ;/opt/microchip/xc8/v2.41/pic/sources/c99/common/doprnt.c: 1324:    switch (*cp) {
  1574   0017A2  EFDF  F00B         	goto	l3140
  1575   0017A6                     l3134:
  1576                           
  1577                           ; BSR set to: 5
  1578                           ;/opt/microchip/xc8/v2.41/pic/sources/c99/common/doprnt.c: 1331:      return (void) utoa
      +                          (fp, convarg.uint);;	Return value of _vfpfcnvrt is never used
  1579   0017A6  C533  F526         	movff	vfpfcnvrt@fp,utoa@fp
  1580   0017AA  C534  F527         	movff	vfpfcnvrt@fp+1,utoa@fp+1
  1581   0017AE  C53B  F528         	movff	vfpfcnvrt@convarg,utoa@d
  1582   0017B2  C53C  F529         	movff	vfpfcnvrt@convarg+1,utoa@d+1
  1583   0017B6  ECDF  F00C         	call	_utoa	;wreg free
  1584   0017BA  EF14  F00C         	goto	l1479
  1585   0017BE                     l3140:
  1586                           
  1587                           ; BSR set to: 5
  1588   0017BE  C53F  F4F6         	movff	vfpfcnvrt@cp,tblptrl
  1589   0017C2  C540  F4F7         	movff	vfpfcnvrt@cp+1,tblptrh
  1590   0017C6                     	if	1	;Program memory is < 0x10000, tblptru is always zero
  1591   0017C6  6AF8               	clrf	tblptru,c
  1592   0017C8                     	endif
  1593   0017C8                     	if	0	;tblptru may be non-zero
  1594   0017C8                     	endif
  1595   0017C8  0008               	tblrd		*
  1596   0017CA  50F5               	movf	tablat,w,c
  1597   0017CC  6E39               	movwf	??_vfpfcnvrt^(0+1280),c
  1598   0017CE  6A3A               	clrf	(??_vfpfcnvrt+1)^(0+1280),c
  1599                           
  1600                           ; Switch on 2 bytes has been partitioned into a top level switch of size 1, and 1 sub-sw
      +                          itches
  1601                           ; Switch size 1, requested type "simple"
  1602                           ; Number of cases is 1, Range of values is 0 to 0
  1603                           ; switch strategies available:
  1604                           ; Name         Instructions Cycles
  1605                           ; simple_byte            4     3 (average)
  1606                           ;	Chosen strategy is simple_byte
  1607   0017D0  503A               	movf	(??_vfpfcnvrt+1)^(0+1280),w,c
  1608   0017D2  0A00               	xorlw	0	; case 0
  1609   0017D4  B4D8               	btfsc	status,2,c
  1610   0017D6  EFEF  F00B         	goto	l3252
  1611   0017DA  EFF6  F00B         	goto	l3142
  1612   0017DE                     l3252:
  1613                           
  1614                           ; BSR set to: 5
  1615                           ; Switch size 1, requested type "simple"
  1616                           ; Number of cases is 1, Range of values is 117 to 117
  1617                           ; switch strategies available:
  1618                           ; Name         Instructions Cycles
  1619                           ; simple_byte            4     3 (average)
  1620                           ;	Chosen strategy is simple_byte
  1621   0017DE  5039               	movf	??_vfpfcnvrt^(0+1280),w,c
  1622   0017E0  0A75               	xorlw	117	; case 117
  1623   0017E2  B4D8               	btfsc	status,2,c
  1624   0017E4  EFD3  F00B         	goto	l3134
  1625   0017E8  EFF6  F00B         	goto	l3142
  1626   0017EC                     l3142:
  1627                           
  1628                           ;/opt/microchip/xc8/v2.41/pic/sources/c99/common/doprnt.c: 1535:         ++*fmt;
  1629   0017EC  C535  F4D9         	movff	vfpfcnvrt@fmt,fsr2l
  1630   0017F0  C536  F4DA         	movff	vfpfcnvrt@fmt+1,fsr2h
  1631   0017F4  2ADE               	incf	postinc2,f,c
  1632   0017F6  0E00               	movlw	0
  1633   0017F8  22DD               	addwfc	postdec2,f,c
  1634   0017FA  EF14  F00C         	goto	l1479
  1635   0017FE                     l3146:
  1636                           
  1637                           ;/opt/microchip/xc8/v2.41/pic/sources/c99/common/doprnt.c: 1540:     fputc((int)(*fmt)[0
      +                          ], fp);
  1638   0017FE  C535  F4D9         	movff	vfpfcnvrt@fmt,fsr2l
  1639   001802  C536  F4DA         	movff	vfpfcnvrt@fmt+1,fsr2h
  1640   001806  C4DE F4F6          	movff	postinc2,tblptrl
  1641   00180A  C4DD F4F7          	movff	postdec2,tblptrh
  1642   00180E                     	if	1	;Program memory is < 0x10000, tblptru is always zero
  1643   00180E  6AF8               	clrf	tblptru,c
  1644   001810                     	endif
  1645   001810                     	if	0	;tblptru may be non-zero
  1646   001810                     	endif
  1647   001810  0008               	tblrd		*
  1648   001812  50F5               	movf	tablat,w,c
  1649   001814  6E0B               	movwf	fputc@c^(0+1280),c
  1650   001816  6A0C               	clrf	(fputc@c+1)^(0+1280),c
  1651   001818  C533  F50D         	movff	vfpfcnvrt@fp,fputc@fp
  1652   00181C  C534  F50E         	movff	vfpfcnvrt@fp+1,fputc@fp+1
  1653   001820  EC57  F00D         	call	_fputc	;wreg free
  1654   001824  EFF6  F00B         	goto	l3142
  1655   001828                     l1479:
  1656   001828  0012               	return		;funcret
  1657   00182A                     __end_of_vfpfcnvrt:
  1658                           	callstack 0
  1659                           
  1660 ;; *************** function _utoa *****************
  1661 ;; Defined at:
  1662 ;;		line 917 in file "/opt/microchip/xc8/v2.41/pic/sources/c99/common/doprnt.c"
  1663 ;; Parameters:    Size  Location     Type
  1664 ;;  fp              2   37[COMRAM] PTR struct _IO_FILE
  1665 ;;		 -> NULL(0), 
  1666 ;;  d               2   39[COMRAM] unsigned int 
  1667 ;; Auto vars:     Size  Location     Type
  1668 ;;  i               2   45[COMRAM] int 
  1669 ;;  p               2   43[COMRAM] int 
  1670 ;;  w               2   41[COMRAM] int 
  1671 ;; Return value:  Size  Location     Type
  1672 ;;                  1    wreg      void 
  1673 ;; Registers used:
  1674 ;;		wreg, fsr1l, fsr1h, fsr2l, fsr2h, status,2, status,0, cstack
  1675 ;; Tracked objects:
  1676 ;;		On entry : 0/0
  1677 ;;		On exit  : 0/0
  1678 ;;		Unchanged: 0/0
  1679 ;; Data sizes:     COMRAM   BANK5   BANK6   BANK7   BANK8   BANK9  BANK10  BANK11  BANK12  BANK13  BANK14  BANK15  BANK1
      +6  BANK17  BANK18  BANK19  BANK20
  1680 ;;      Params:         4       0       0       0       0       0       0       0       0       0       0       0       
      +0       0       0       0       0
  1681 ;;      Locals:         6       0       0       0       0       0       0       0       0       0       0       0       
      +0       0       0       0       0
  1682 ;;      Temps:          0       0       0       0       0       0       0       0       0       0       0       0       
      +0       0       0       0       0
  1683 ;;      Totals:        10       0       0       0       0       0       0       0       0       0       0       0       
      +0       0       0       0       0
  1684 ;;Total ram usage:       10 bytes
  1685 ;; Hardware stack levels used: 1
  1686 ;; Hardware stack levels required when called: 8
  1687 ;; This function calls:
  1688 ;;		___lwdiv
  1689 ;;		___lwmod
  1690 ;;		_pad
  1691 ;; This function is called by:
  1692 ;;		_vfpfcnvrt
  1693 ;; This function uses a non-reentrant model
  1694 ;;
  1695                           
  1696                           	psect	text7
  1697   0019BE                     __ptext7:
  1698                           	callstack 0
  1699   0019BE                     _utoa:
  1700                           	callstack 115
  1701   0019BE                     
  1702                           ;/opt/microchip/xc8/v2.41/pic/sources/c99/common/doprnt.c: 917: static void utoa(FILE *f
      +                          p, vfpf_uint_t d);/opt/microchip/xc8/v2.41/pic/sources/c99/common/doprnt.c: 918: {;/opt/
      +                          microchip/xc8/v2.41/pic/sources/c99/common/doprnt.c: 919:     int i, p, w;;/opt/microchi
      +                          p/xc8/v2.41/pic/sources/c99/common/doprnt.c: 927:     p = (0 <= prec) ? prec : 1;
  1703   0019BE  BE4A               	btfsc	(_prec+1)^(0+1280),7,c
  1704   0019C0  EFE6  F00C         	goto	u1940
  1705   0019C4  EFE4  F00C         	goto	u1941
  1706   0019C8                     u1941:
  1707   0019C8  EFEC  F00C         	goto	l1464
  1708   0019CC                     u1940:
  1709   0019CC  0E00               	movlw	0
  1710   0019CE  6E2D               	movwf	(utoa@p+1)^(0+1280),c
  1711   0019D0  0E01               	movlw	1
  1712   0019D2  6E2C               	movwf	utoa@p^(0+1280),c
  1713   0019D4  EFF0  F00C         	goto	l1466
  1714   0019D8                     l1464:
  1715   0019D8  C549  F52C         	movff	_prec,utoa@p
  1716   0019DC  C54A  F52D         	movff	_prec+1,utoa@p+1
  1717   0019E0                     l1466:
  1718                           
  1719                           ;/opt/microchip/xc8/v2.41/pic/sources/c99/common/doprnt.c: 928:     w = width;
  1720   0019E0  C560  F52A         	movff	_width,utoa@w
  1721   0019E4  C561  F52B         	movff	_width+1,utoa@w+1
  1722   0019E8                     
  1723                           ;/opt/microchip/xc8/v2.41/pic/sources/c99/common/doprnt.c: 931:     i = sizeof(dbuf) - 1
      +                          ;
  1724   0019E8  0E00               	movlw	0
  1725   0019EA  6E2F               	movwf	(utoa@i+1)^(0+1280),c
  1726   0019EC  0E1F               	movlw	31
  1727   0019EE  6E2E               	movwf	utoa@i^(0+1280),c
  1728   0019F0                     
  1729                           ;/opt/microchip/xc8/v2.41/pic/sources/c99/common/doprnt.c: 932:     dbuf[i] = '\0';
  1730   0019F0  0E00               	movlw	0
  1731   0019F2  0105               	movlb	5	; () banked
  1732   0019F4  6F95               	movwf	(_dbuf+31)& (0+255),b
  1733                           
  1734                           ;/opt/microchip/xc8/v2.41/pic/sources/c99/common/doprnt.c: 933:     while (i && (d || (0
      +                           < p)
  1735   0019F6  EF27  F00D         	goto	l3100
  1736   0019FA                     l3090:
  1737                           
  1738                           ;/opt/microchip/xc8/v2.41/pic/sources/c99/common/doprnt.c: 937:     )) {;/opt/microchip/
      +                          xc8/v2.41/pic/sources/c99/common/doprnt.c: 938:         --i;
  1739   0019FA  062E               	decf	utoa@i^(0+1280),f,c
  1740   0019FC  A0D8               	btfss	status,0,c
  1741   0019FE  062F               	decf	(utoa@i+1)^(0+1280),f,c
  1742   001A00                     
  1743                           ;/opt/microchip/xc8/v2.41/pic/sources/c99/common/doprnt.c: 939:         dbuf[i] = '0' + 
      +                          (d % 10);
  1744   001A00  0E76               	movlw	low _dbuf
  1745   001A02  242E               	addwf	utoa@i^(0+1280),w,c
  1746   001A04  6ED9               	movwf	fsr2l,c
  1747   001A06  0E05               	movlw	high _dbuf
  1748   001A08  202F               	addwfc	(utoa@i+1)^(0+1280),w,c
  1749   001A0A  6EDA               	movwf	fsr2h,c
  1750   001A0C  C528  F509         	movff	utoa@d,___lwmod@dividend
  1751   001A10  C529  F50A         	movff	utoa@d+1,___lwmod@dividend+1
  1752   001A14  0E00               	movlw	0
  1753   001A16  6E0C               	movwf	(___lwmod@divisor+1)^(0+1280),c
  1754   001A18  0E0A               	movlw	10
  1755   001A1A  6E0B               	movwf	___lwmod@divisor^(0+1280),c
  1756   001A1C  EC3A  F010         	call	___lwmod	;wreg free
  1757   001A20  5009               	movf	?___lwmod^(0+1280),w,c
  1758   001A22  0F30               	addlw	48
  1759   001A24  6EDF               	movwf	indf2,c
  1760   001A26                     
  1761                           ;/opt/microchip/xc8/v2.41/pic/sources/c99/common/doprnt.c: 940:         --p;
  1762   001A26  062C               	decf	utoa@p^(0+1280),f,c
  1763   001A28  A0D8               	btfss	status,0,c
  1764   001A2A  062D               	decf	(utoa@p+1)^(0+1280),f,c
  1765   001A2C                     
  1766                           ;/opt/microchip/xc8/v2.41/pic/sources/c99/common/doprnt.c: 941:         --w;
  1767   001A2C  062A               	decf	utoa@w^(0+1280),f,c
  1768   001A2E  A0D8               	btfss	status,0,c
  1769   001A30  062B               	decf	(utoa@w+1)^(0+1280),f,c
  1770   001A32                     
  1771                           ;/opt/microchip/xc8/v2.41/pic/sources/c99/common/doprnt.c: 942:         d = d / 10;
  1772   001A32  C528  F509         	movff	utoa@d,___lwdiv@dividend
  1773   001A36  C529  F50A         	movff	utoa@d+1,___lwdiv@dividend+1
  1774   001A3A  0E00               	movlw	0
  1775   001A3C  6E0C               	movwf	(___lwdiv@divisor+1)^(0+1280),c
  1776   001A3E  0E0A               	movlw	10
  1777   001A40  6E0B               	movwf	___lwdiv@divisor^(0+1280),c
  1778   001A42  EC8F  F00F         	call	___lwdiv	;wreg free
  1779   001A46  C509  F528         	movff	?___lwdiv,utoa@d
  1780   001A4A  C50A  F529         	movff	?___lwdiv+1,utoa@d+1
  1781   001A4E                     l3100:
  1782                           
  1783                           ;/opt/microchip/xc8/v2.41/pic/sources/c99/common/doprnt.c: 933:     while (i && (d || (0
      +                           < p)
  1784   001A4E  502E               	movf	utoa@i^(0+1280),w,c
  1785   001A50  102F               	iorwf	(utoa@i+1)^(0+1280),w,c
  1786   001A52  B4D8               	btfsc	status,2,c
  1787   001A54  EF2E  F00D         	goto	u1951
  1788   001A58  EF30  F00D         	goto	u1950
  1789   001A5C                     u1951:
  1790   001A5C  EF46  F00D         	goto	l3106
  1791   001A60                     u1950:
  1792   001A60  5028               	movf	utoa@d^(0+1280),w,c
  1793   001A62  1029               	iorwf	(utoa@d+1)^(0+1280),w,c
  1794   001A64  A4D8               	btfss	status,2,c
  1795   001A66  EF37  F00D         	goto	u1961
  1796   001A6A  EF39  F00D         	goto	u1960
  1797   001A6E                     u1961:
  1798   001A6E  EFFD  F00C         	goto	l3090
  1799   001A72                     u1960:
  1800   001A72  BE2D               	btfsc	(utoa@p+1)^(0+1280),7,c
  1801   001A74  EF46  F00D         	goto	u1970
  1802   001A78  502D               	movf	(utoa@p+1)^(0+1280),w,c
  1803   001A7A  E106               	bnz	u1971
  1804   001A7C  042C               	decf	utoa@p^(0+1280),w,c
  1805   001A7E  B0D8               	btfsc	status,0,c
  1806   001A80  EF44  F00D         	goto	u1971
  1807   001A84  EF46  F00D         	goto	u1970
  1808   001A88                     u1971:
  1809   001A88  EFFD  F00C         	goto	l3090
  1810   001A8C                     u1970:
  1811   001A8C                     l3106:
  1812                           
  1813                           ;/opt/microchip/xc8/v2.41/pic/sources/c99/common/doprnt.c: 946:     return (void) pad(fp
      +                          , &dbuf[i], w);
  1814   001A8C  C526  F51B         	movff	utoa@fp,pad@fp
  1815   001A90  C527  F51C         	movff	utoa@fp+1,pad@fp+1
  1816   001A94  0E76               	movlw	low _dbuf
  1817   001A96  242E               	addwf	utoa@i^(0+1280),w,c
  1818   001A98  6E1D               	movwf	pad@buf^(0+1280),c
  1819   001A9A  0E05               	movlw	high _dbuf
  1820   001A9C  202F               	addwfc	(utoa@i+1)^(0+1280),w,c
  1821   001A9E  6E1E               	movwf	(pad@buf+1)^(0+1280),c
  1822   001AA0  C52A  F51F         	movff	utoa@w,pad@p
  1823   001AA4  C52B  F520         	movff	utoa@w+1,pad@p+1
  1824   001AA8  EC52  F00F         	call	_pad	;wreg free
  1825   001AAC  0012               	return		;funcret
  1826   001AAE                     __end_of_utoa:
  1827                           	callstack 0
  1828                           
  1829 ;; *************** function ___lwmod *****************
  1830 ;; Defined at:
  1831 ;;		line 7 in file "/opt/microchip/xc8/v2.41/pic/sources/c99/common/lwmod.c"
  1832 ;; Parameters:    Size  Location     Type
  1833 ;;  dividend        2    8[COMRAM] unsigned int 
  1834 ;;  divisor         2   10[COMRAM] unsigned int 
  1835 ;; Auto vars:     Size  Location     Type
  1836 ;;  counter         1   12[COMRAM] unsigned char 
  1837 ;; Return value:  Size  Location     Type
  1838 ;;                  2    8[COMRAM] unsigned int 
  1839 ;; Registers used:
  1840 ;;		wreg, status,2, status,0
  1841 ;; Tracked objects:
  1842 ;;		On entry : 0/0
  1843 ;;		On exit  : 0/0
  1844 ;;		Unchanged: 0/0
  1845 ;; Data sizes:     COMRAM   BANK5   BANK6   BANK7   BANK8   BANK9  BANK10  BANK11  BANK12  BANK13  BANK14  BANK15  BANK1
      +6  BANK17  BANK18  BANK19  BANK20
  1846 ;;      Params:         4       0       0       0       0       0       0       0       0       0       0       0       
      +0       0       0       0       0
  1847 ;;      Locals:         1       0       0       0       0       0       0       0       0       0       0       0       
      +0       0       0       0       0
  1848 ;;      Temps:          0       0       0       0       0       0       0       0       0       0       0       0       
      +0       0       0       0       0
  1849 ;;      Totals:         5       0       0       0       0       0       0       0       0       0       0       0       
      +0       0       0       0       0
  1850 ;;Total ram usage:        5 bytes
  1851 ;; Hardware stack levels used: 1
  1852 ;; Hardware stack levels required when called: 3
  1853 ;; This function calls:
  1854 ;;		Nothing
  1855 ;; This function is called by:
  1856 ;;		_utoa
  1857 ;; This function uses a non-reentrant model
  1858 ;;
  1859                           
  1860                           	psect	text8
  1861   002074                     __ptext8:
  1862                           	callstack 0
  1863   002074                     ___lwmod:
  1864                           	callstack 119
  1865   002074  500B               	movf	___lwmod@divisor^(0+1280),w,c
  1866   002076  100C               	iorwf	(___lwmod@divisor+1)^(0+1280),w,c
  1867   002078  B4D8               	btfsc	status,2,c
  1868   00207A  EF41  F010         	goto	u1781
  1869   00207E  EF43  F010         	goto	u1780
  1870   002082                     u1781:
  1871   002082  EF67  F010         	goto	l1238
  1872   002086                     u1780:
  1873   002086  0E01               	movlw	1
  1874   002088  6E0D               	movwf	___lwmod@counter^(0+1280),c
  1875   00208A  EF4B  F010         	goto	l3004
  1876   00208E                     l3002:
  1877   00208E  90D8               	bcf	status,0,c
  1878   002090  360B               	rlcf	___lwmod@divisor^(0+1280),f,c
  1879   002092  360C               	rlcf	(___lwmod@divisor+1)^(0+1280),f,c
  1880   002094  2A0D               	incf	___lwmod@counter^(0+1280),f,c
  1881   002096                     l3004:
  1882   002096  AE0C               	btfss	(___lwmod@divisor+1)^(0+1280),7,c
  1883   002098  EF50  F010         	goto	u1791
  1884   00209C  EF52  F010         	goto	u1790
  1885   0020A0                     u1791:
  1886   0020A0  EF47  F010         	goto	l3002
  1887   0020A4                     u1790:
  1888   0020A4                     l3006:
  1889   0020A4  500B               	movf	___lwmod@divisor^(0+1280),w,c
  1890   0020A6  5C09               	subwf	___lwmod@dividend^(0+1280),w,c
  1891   0020A8  500C               	movf	(___lwmod@divisor+1)^(0+1280),w,c
  1892   0020AA  580A               	subwfb	(___lwmod@dividend+1)^(0+1280),w,c
  1893   0020AC  A0D8               	btfss	status,0,c
  1894   0020AE  EF5B  F010         	goto	u1801
  1895   0020B2  EF5D  F010         	goto	u1800
  1896   0020B6                     u1801:
  1897   0020B6  EF61  F010         	goto	l3010
  1898   0020BA                     u1800:
  1899   0020BA  500B               	movf	___lwmod@divisor^(0+1280),w,c
  1900   0020BC  5E09               	subwf	___lwmod@dividend^(0+1280),f,c
  1901   0020BE  500C               	movf	(___lwmod@divisor+1)^(0+1280),w,c
  1902   0020C0  5A0A               	subwfb	(___lwmod@dividend+1)^(0+1280),f,c
  1903   0020C2                     l3010:
  1904   0020C2  90D8               	bcf	status,0,c
  1905   0020C4  320C               	rrcf	(___lwmod@divisor+1)^(0+1280),f,c
  1906   0020C6  320B               	rrcf	___lwmod@divisor^(0+1280),f,c
  1907   0020C8  2E0D               	decfsz	___lwmod@counter^(0+1280),f,c
  1908   0020CA  EF52  F010         	goto	l3006
  1909   0020CE                     l1238:
  1910   0020CE  C509  F509         	movff	___lwmod@dividend,?___lwmod
  1911   0020D2  C50A  F50A         	movff	___lwmod@dividend+1,?___lwmod+1
  1912   0020D6  0012               	return		;funcret
  1913   0020D8                     __end_of___lwmod:
  1914                           	callstack 0
  1915                           
  1916 ;; *************** function ___lwdiv *****************
  1917 ;; Defined at:
  1918 ;;		line 7 in file "/opt/microchip/xc8/v2.41/pic/sources/c99/common/lwdiv.c"
  1919 ;; Parameters:    Size  Location     Type
  1920 ;;  dividend        2    8[COMRAM] unsigned int 
  1921 ;;  divisor         2   10[COMRAM] unsigned int 
  1922 ;; Auto vars:     Size  Location     Type
  1923 ;;  quotient        2   13[COMRAM] unsigned int 
  1924 ;;  counter         1   12[COMRAM] unsigned char 
  1925 ;; Return value:  Size  Location     Type
  1926 ;;                  2    8[COMRAM] unsigned int 
  1927 ;; Registers used:
  1928 ;;		wreg, status,2, status,0
  1929 ;; Tracked objects:
  1930 ;;		On entry : 0/0
  1931 ;;		On exit  : 0/0
  1932 ;;		Unchanged: 0/0
  1933 ;; Data sizes:     COMRAM   BANK5   BANK6   BANK7   BANK8   BANK9  BANK10  BANK11  BANK12  BANK13  BANK14  BANK15  BANK1
      +6  BANK17  BANK18  BANK19  BANK20
  1934 ;;      Params:         4       0       0       0       0       0       0       0       0       0       0       0       
      +0       0       0       0       0
  1935 ;;      Locals:         3       0       0       0       0       0       0       0       0       0       0       0       
      +0       0       0       0       0
  1936 ;;      Temps:          0       0       0       0       0       0       0       0       0       0       0       0       
      +0       0       0       0       0
  1937 ;;      Totals:         7       0       0       0       0       0       0       0       0       0       0       0       
      +0       0       0       0       0
  1938 ;;Total ram usage:        7 bytes
  1939 ;; Hardware stack levels used: 1
  1940 ;; Hardware stack levels required when called: 3
  1941 ;; This function calls:
  1942 ;;		Nothing
  1943 ;; This function is called by:
  1944 ;;		_utoa
  1945 ;; This function uses a non-reentrant model
  1946 ;;
  1947                           
  1948                           	psect	text9
  1949   001F1E                     __ptext9:
  1950                           	callstack 0
  1951   001F1E                     ___lwdiv:
  1952                           	callstack 119
  1953   001F1E  0E00               	movlw	0
  1954   001F20  6E0F               	movwf	(___lwdiv@quotient+1)^(0+1280),c
  1955   001F22  0E00               	movlw	0
  1956   001F24  6E0E               	movwf	___lwdiv@quotient^(0+1280),c
  1957   001F26  500B               	movf	___lwdiv@divisor^(0+1280),w,c
  1958   001F28  100C               	iorwf	(___lwdiv@divisor+1)^(0+1280),w,c
  1959   001F2A  B4D8               	btfsc	status,2,c
  1960   001F2C  EF9A  F00F         	goto	u1751
  1961   001F30  EF9C  F00F         	goto	u1750
  1962   001F34                     u1751:
  1963   001F34  EFC4  F00F         	goto	l1228
  1964   001F38                     u1750:
  1965   001F38  0E01               	movlw	1
  1966   001F3A  6E0D               	movwf	___lwdiv@counter^(0+1280),c
  1967   001F3C  EFA4  F00F         	goto	l2984
  1968   001F40                     l2982:
  1969   001F40  90D8               	bcf	status,0,c
  1970   001F42  360B               	rlcf	___lwdiv@divisor^(0+1280),f,c
  1971   001F44  360C               	rlcf	(___lwdiv@divisor+1)^(0+1280),f,c
  1972   001F46  2A0D               	incf	___lwdiv@counter^(0+1280),f,c
  1973   001F48                     l2984:
  1974   001F48  AE0C               	btfss	(___lwdiv@divisor+1)^(0+1280),7,c
  1975   001F4A  EFA9  F00F         	goto	u1761
  1976   001F4E  EFAB  F00F         	goto	u1760
  1977   001F52                     u1761:
  1978   001F52  EFA0  F00F         	goto	l2982
  1979   001F56                     u1760:
  1980   001F56                     l2986:
  1981   001F56  90D8               	bcf	status,0,c
  1982   001F58  360E               	rlcf	___lwdiv@quotient^(0+1280),f,c
  1983   001F5A  360F               	rlcf	(___lwdiv@quotient+1)^(0+1280),f,c
  1984   001F5C  500B               	movf	___lwdiv@divisor^(0+1280),w,c
  1985   001F5E  5C09               	subwf	___lwdiv@dividend^(0+1280),w,c
  1986   001F60  500C               	movf	(___lwdiv@divisor+1)^(0+1280),w,c
  1987   001F62  580A               	subwfb	(___lwdiv@dividend+1)^(0+1280),w,c
  1988   001F64  A0D8               	btfss	status,0,c
  1989   001F66  EFB7  F00F         	goto	u1771
  1990   001F6A  EFB9  F00F         	goto	u1770
  1991   001F6E                     u1771:
  1992   001F6E  EFBE  F00F         	goto	l2994
  1993   001F72                     u1770:
  1994   001F72  500B               	movf	___lwdiv@divisor^(0+1280),w,c
  1995   001F74  5E09               	subwf	___lwdiv@dividend^(0+1280),f,c
  1996   001F76  500C               	movf	(___lwdiv@divisor+1)^(0+1280),w,c
  1997   001F78  5A0A               	subwfb	(___lwdiv@dividend+1)^(0+1280),f,c
  1998   001F7A  800E               	bsf	___lwdiv@quotient^(0+1280),0,c
  1999   001F7C                     l2994:
  2000   001F7C  90D8               	bcf	status,0,c
  2001   001F7E  320C               	rrcf	(___lwdiv@divisor+1)^(0+1280),f,c
  2002   001F80  320B               	rrcf	___lwdiv@divisor^(0+1280),f,c
  2003   001F82  2E0D               	decfsz	___lwdiv@counter^(0+1280),f,c
  2004   001F84  EFAB  F00F         	goto	l2986
  2005   001F88                     l1228:
  2006   001F88  C50E  F509         	movff	___lwdiv@quotient,?___lwdiv
  2007   001F8C  C50F  F50A         	movff	___lwdiv@quotient+1,?___lwdiv+1
  2008   001F90  0012               	return		;funcret
  2009   001F92                     __end_of___lwdiv:
  2010                           	callstack 0
  2011                           
  2012 ;; *************** function _dtoa *****************
  2013 ;; Defined at:
  2014 ;;		line 470 in file "/opt/microchip/xc8/v2.41/pic/sources/c99/common/doprnt.c"
  2015 ;; Parameters:    Size  Location     Type
  2016 ;;  fp              2   37[COMRAM] PTR struct _IO_FILE
  2017 ;;		 -> NULL(0), 
  2018 ;;  d               2   39[COMRAM] int 
  2019 ;; Auto vars:     Size  Location     Type
  2020 ;;  i               2   48[COMRAM] int 
  2021 ;;  w               2   45[COMRAM] int 
  2022 ;;  p               2   43[COMRAM] int 
  2023 ;;  s               1   47[COMRAM] unsigned char 
  2024 ;; Return value:  Size  Location     Type
  2025 ;;                  1    wreg      void 
  2026 ;; Registers used:
  2027 ;;		wreg, fsr1l, fsr1h, fsr2l, fsr2h, status,2, status,0, cstack
  2028 ;; Tracked objects:
  2029 ;;		On entry : 0/0
  2030 ;;		On exit  : 0/0
  2031 ;;		Unchanged: 0/0
  2032 ;; Data sizes:     COMRAM   BANK5   BANK6   BANK7   BANK8   BANK9  BANK10  BANK11  BANK12  BANK13  BANK14  BANK15  BANK1
      +6  BANK17  BANK18  BANK19  BANK20
  2033 ;;      Params:         4       0       0       0       0       0       0       0       0       0       0       0       
      +0       0       0       0       0
  2034 ;;      Locals:         9       0       0       0       0       0       0       0       0       0       0       0       
      +0       0       0       0       0
  2035 ;;      Temps:          0       0       0       0       0       0       0       0       0       0       0       0       
      +0       0       0       0       0
  2036 ;;      Totals:        13       0       0       0       0       0       0       0       0       0       0       0       
      +0       0       0       0       0
  2037 ;;Total ram usage:       13 bytes
  2038 ;; Hardware stack levels used: 1
  2039 ;; Hardware stack levels required when called: 8
  2040 ;; This function calls:
  2041 ;;		___awdiv
  2042 ;;		___awmod
  2043 ;;		_abs
  2044 ;;		_pad
  2045 ;; This function is called by:
  2046 ;;		_vfpfcnvrt
  2047 ;; This function uses a non-reentrant model
  2048 ;;
  2049                           
  2050                           	psect	text10
  2051   00182A                     __ptext10:
  2052                           	callstack 0
  2053   00182A                     _dtoa:
  2054                           	callstack 115
  2055   00182A                     
  2056                           ;/opt/microchip/xc8/v2.41/pic/sources/c99/common/doprnt.c: 470: static void dtoa(FILE *f
      +                          p, vfpf_sint_t d);/opt/microchip/xc8/v2.41/pic/sources/c99/common/doprnt.c: 471: {;/opt/
      +                          microchip/xc8/v2.41/pic/sources/c99/common/doprnt.c: 472:  char s;;/opt/microchip/xc8/v2
      +                          .41/pic/sources/c99/common/doprnt.c: 473:     int i, p, w;;/opt/microchip/xc8/v2.41/pic/
      +                          sources/c99/common/doprnt.c: 476:     s = d < 0 ? 1 : 0;
  2057   00182A  BE29               	btfsc	(dtoa@d+1)^(0+1280),7,c
  2058   00182C  EF1A  F00C         	goto	u1841
  2059   001830  EF1D  F00C         	goto	u1840
  2060   001834                     u1841:
  2061   001834  0E01               	movlw	1
  2062   001836  EF1E  F00C         	goto	u1850
  2063   00183A                     u1840:
  2064   00183A  0E00               	movlw	0
  2065   00183C                     u1850:
  2066   00183C  6E30               	movwf	dtoa@s^(0+1280),c
  2067   00183E                     
  2068                           ;/opt/microchip/xc8/v2.41/pic/sources/c99/common/doprnt.c: 477:     if (s) {
  2069   00183E  5030               	movf	dtoa@s^(0+1280),w,c
  2070   001840  B4D8               	btfsc	status,2,c
  2071   001842  EF25  F00C         	goto	u1861
  2072   001846  EF27  F00C         	goto	u1860
  2073   00184A                     u1861:
  2074   00184A  EF2B  F00C         	goto	l3038
  2075   00184E                     u1860:
  2076   00184E                     
  2077                           ;/opt/microchip/xc8/v2.41/pic/sources/c99/common/doprnt.c: 478:         d = -d;
  2078   00184E  6C28               	negf	dtoa@d^(0+1280),c
  2079   001850  1E29               	comf	(dtoa@d+1)^(0+1280),f,c
  2080   001852  B0D8               	btfsc	status,0,c
  2081   001854  2A29               	incf	(dtoa@d+1)^(0+1280),f,c
  2082   001856                     l3038:
  2083                           
  2084                           ;/opt/microchip/xc8/v2.41/pic/sources/c99/common/doprnt.c: 487:     p = (0 <= prec) ? pr
      +                          ec : 1;
  2085   001856  BE4A               	btfsc	(_prec+1)^(0+1280),7,c
  2086   001858  EF32  F00C         	goto	u1870
  2087   00185C  EF30  F00C         	goto	u1871
  2088   001860                     u1871:
  2089   001860  EF38  F00C         	goto	l1446
  2090   001864                     u1870:
  2091   001864  0E00               	movlw	0
  2092   001866  6E2D               	movwf	(dtoa@p+1)^(0+1280),c
  2093   001868  0E01               	movlw	1
  2094   00186A  6E2C               	movwf	dtoa@p^(0+1280),c
  2095   00186C  EF3C  F00C         	goto	l1448
  2096   001870                     l1446:
  2097   001870  C549  F52C         	movff	_prec,dtoa@p
  2098   001874  C54A  F52D         	movff	_prec+1,dtoa@p+1
  2099   001878                     l1448:
  2100                           
  2101                           ;/opt/microchip/xc8/v2.41/pic/sources/c99/common/doprnt.c: 488:     w = width;
  2102   001878  C560  F52E         	movff	_width,dtoa@w
  2103   00187C  C561  F52F         	movff	_width+1,dtoa@w+1
  2104   001880                     
  2105                           ;/opt/microchip/xc8/v2.41/pic/sources/c99/common/doprnt.c: 489:     if (s
  2106   001880  5030               	movf	dtoa@s^(0+1280),w,c
  2107   001882  B4D8               	btfsc	status,2,c
  2108   001884  EF46  F00C         	goto	u1881
  2109   001888  EF48  F00C         	goto	u1880
  2110   00188C                     u1881:
  2111   00188C  EF5F  F00C         	goto	l1449
  2112   001890                     u1880:
  2113   001890                     
  2114                           ;/opt/microchip/xc8/v2.41/pic/sources/c99/common/doprnt.c: 493:     ) {;/opt/microchip/x
      +                          c8/v2.41/pic/sources/c99/common/doprnt.c: 494:         --w;
  2115   001890  062E               	decf	dtoa@w^(0+1280),f,c
  2116   001892  A0D8               	btfss	status,0,c
  2117   001894  062F               	decf	(dtoa@w+1)^(0+1280),f,c
  2118   001896                     
  2119                           ;/opt/microchip/xc8/v2.41/pic/sources/c99/common/doprnt.c: 495:   s = s ? '-' : '+';
  2120   001896  5030               	movf	dtoa@s^(0+1280),w,c
  2121   001898  A4D8               	btfss	status,2,c
  2122   00189A  EF51  F00C         	goto	u1891
  2123   00189E  EF53  F00C         	goto	u1890
  2124   0018A2                     u1891:
  2125   0018A2  EF59  F00C         	goto	l3050
  2126   0018A6                     u1890:
  2127   0018A6  0E00               	movlw	0
  2128   0018A8  6E2B               	movwf	(_dtoa$1895+1)^(0+1280),c
  2129   0018AA  0E2B               	movlw	43
  2130   0018AC  6E2A               	movwf	_dtoa$1895^(0+1280),c
  2131   0018AE  EF5D  F00C         	goto	l3052
  2132   0018B2                     l3050:
  2133   0018B2  0E00               	movlw	0
  2134   0018B4  6E2B               	movwf	(_dtoa$1895+1)^(0+1280),c
  2135   0018B6  0E2D               	movlw	45
  2136   0018B8  6E2A               	movwf	_dtoa$1895^(0+1280),c
  2137   0018BA                     l3052:
  2138   0018BA  C52A  F530         	movff	_dtoa$1895,dtoa@s
  2139   0018BE                     l1449:
  2140                           
  2141                           ;/opt/microchip/xc8/v2.41/pic/sources/c99/common/doprnt.c: 505:     i = sizeof(dbuf) - 1
      +                          ;
  2142   0018BE  0E00               	movlw	0
  2143   0018C0  6E32               	movwf	(dtoa@i+1)^(0+1280),c
  2144   0018C2  0E1F               	movlw	31
  2145   0018C4  6E31               	movwf	dtoa@i^(0+1280),c
  2146   0018C6                     
  2147                           ;/opt/microchip/xc8/v2.41/pic/sources/c99/common/doprnt.c: 506:     dbuf[i] = '\0';
  2148   0018C6  0E00               	movlw	0
  2149   0018C8  0105               	movlb	5	; () banked
  2150   0018CA  6F95               	movwf	(_dbuf+31)& (0+255),b
  2151                           
  2152                           ;/opt/microchip/xc8/v2.41/pic/sources/c99/common/doprnt.c: 507:     while (!(i < 1) && (
      +                          d || (0 < p)
  2153   0018CC  EF98  F00C         	goto	l3066
  2154   0018D0                     l3056:
  2155                           
  2156                           ;/opt/microchip/xc8/v2.41/pic/sources/c99/common/doprnt.c: 511:     )) {;/opt/microchip/
      +                          xc8/v2.41/pic/sources/c99/common/doprnt.c: 512:         --i;
  2157   0018D0  0631               	decf	dtoa@i^(0+1280),f,c
  2158   0018D2  A0D8               	btfss	status,0,c
  2159   0018D4  0632               	decf	(dtoa@i+1)^(0+1280),f,c
  2160   0018D6                     
  2161                           ;/opt/microchip/xc8/v2.41/pic/sources/c99/common/doprnt.c: 513:         dbuf[i] = (char)
      +                          ((int)'0' + abs(d % 10));
  2162   0018D6  0E76               	movlw	low _dbuf
  2163   0018D8  2431               	addwf	dtoa@i^(0+1280),w,c
  2164   0018DA  6ED9               	movwf	fsr2l,c
  2165   0018DC  0E05               	movlw	high _dbuf
  2166   0018DE  2032               	addwfc	(dtoa@i+1)^(0+1280),w,c
  2167   0018E0  6EDA               	movwf	fsr2h,c
  2168   0018E2  C528  F509         	movff	dtoa@d,___awmod@dividend
  2169   0018E6  C529  F50A         	movff	dtoa@d+1,___awmod@dividend+1
  2170   0018EA  0E00               	movlw	0
  2171   0018EC  6E0C               	movwf	(___awmod@divisor+1)^(0+1280),c
  2172   0018EE  0E0A               	movlw	10
  2173   0018F0  6E0B               	movwf	___awmod@divisor^(0+1280),c
  2174   0018F2  EC1E  F00E         	call	___awmod	;wreg free
  2175   0018F6  C509  F50F         	movff	?___awmod,abs@a
  2176   0018FA  C50A  F510         	movff	?___awmod+1,abs@a+1
  2177   0018FE  EC2E  F011         	call	_abs	;wreg free
  2178   001902  500F               	movf	?_abs^(0+1280),w,c
  2179   001904  0F30               	addlw	48
  2180   001906  6EDF               	movwf	indf2,c
  2181   001908                     
  2182                           ;/opt/microchip/xc8/v2.41/pic/sources/c99/common/doprnt.c: 514:         --p;
  2183   001908  062C               	decf	dtoa@p^(0+1280),f,c
  2184   00190A  A0D8               	btfss	status,0,c
  2185   00190C  062D               	decf	(dtoa@p+1)^(0+1280),f,c
  2186   00190E                     
  2187                           ;/opt/microchip/xc8/v2.41/pic/sources/c99/common/doprnt.c: 515:         --w;
  2188   00190E  062E               	decf	dtoa@w^(0+1280),f,c
  2189   001910  A0D8               	btfss	status,0,c
  2190   001912  062F               	decf	(dtoa@w+1)^(0+1280),f,c
  2191   001914                     
  2192                           ;/opt/microchip/xc8/v2.41/pic/sources/c99/common/doprnt.c: 516:         d = d / 10;
  2193   001914  C528  F509         	movff	dtoa@d,___awdiv@dividend
  2194   001918  C529  F50A         	movff	dtoa@d+1,___awdiv@dividend+1
  2195   00191C  0E00               	movlw	0
  2196   00191E  6E0C               	movwf	(___awdiv@divisor+1)^(0+1280),c
  2197   001920  0E0A               	movlw	10
  2198   001922  6E0B               	movwf	___awdiv@divisor^(0+1280),c
  2199   001924  ECBC  F00D         	call	___awdiv	;wreg free
  2200   001928  C509  F528         	movff	?___awdiv,dtoa@d
  2201   00192C  C50A  F529         	movff	?___awdiv+1,dtoa@d+1
  2202   001930                     l3066:
  2203                           
  2204                           ;/opt/microchip/xc8/v2.41/pic/sources/c99/common/doprnt.c: 507:     while (!(i < 1) && (
      +                          d || (0 < p)
  2205   001930  BE32               	btfsc	(dtoa@i+1)^(0+1280),7,c
  2206   001932  EFA3  F00C         	goto	u1901
  2207   001936  5032               	movf	(dtoa@i+1)^(0+1280),w,c
  2208   001938  E108               	bnz	u1900
  2209   00193A  0431               	decf	dtoa@i^(0+1280),w,c
  2210   00193C  A0D8               	btfss	status,0,c
  2211   00193E  EFA3  F00C         	goto	u1901
  2212   001942  EFA5  F00C         	goto	u1900
  2213   001946                     u1901:
  2214   001946  EFBB  F00C         	goto	l3072
  2215   00194A                     u1900:
  2216   00194A  5028               	movf	dtoa@d^(0+1280),w,c
  2217   00194C  1029               	iorwf	(dtoa@d+1)^(0+1280),w,c
  2218   00194E  A4D8               	btfss	status,2,c
  2219   001950  EFAC  F00C         	goto	u1911
  2220   001954  EFAE  F00C         	goto	u1910
  2221   001958                     u1911:
  2222   001958  EF68  F00C         	goto	l3056
  2223   00195C                     u1910:
  2224   00195C  BE2D               	btfsc	(dtoa@p+1)^(0+1280),7,c
  2225   00195E  EFBB  F00C         	goto	u1920
  2226   001962  502D               	movf	(dtoa@p+1)^(0+1280),w,c
  2227   001964  E106               	bnz	u1921
  2228   001966  042C               	decf	dtoa@p^(0+1280),w,c
  2229   001968  B0D8               	btfsc	status,0,c
  2230   00196A  EFB9  F00C         	goto	u1921
  2231   00196E  EFBB  F00C         	goto	u1920
  2232   001972                     u1921:
  2233   001972  EF68  F00C         	goto	l3056
  2234   001976                     u1920:
  2235   001976                     l3072:
  2236                           
  2237                           ;/opt/microchip/xc8/v2.41/pic/sources/c99/common/doprnt.c: 520:     if (s != 0) {
  2238   001976  5030               	movf	dtoa@s^(0+1280),w,c
  2239   001978  B4D8               	btfsc	status,2,c
  2240   00197A  EFC1  F00C         	goto	u1931
  2241   00197E  EFC3  F00C         	goto	u1930
  2242   001982                     u1931:
  2243   001982  EFCE  F00C         	goto	l3078
  2244   001986                     u1930:
  2245   001986                     
  2246                           ;/opt/microchip/xc8/v2.41/pic/sources/c99/common/doprnt.c: 521:         --i;
  2247   001986  0631               	decf	dtoa@i^(0+1280),f,c
  2248   001988  A0D8               	btfss	status,0,c
  2249   00198A  0632               	decf	(dtoa@i+1)^(0+1280),f,c
  2250   00198C                     
  2251                           ;/opt/microchip/xc8/v2.41/pic/sources/c99/common/doprnt.c: 522:         dbuf[i] = s;
  2252   00198C  0E76               	movlw	low _dbuf
  2253   00198E  2431               	addwf	dtoa@i^(0+1280),w,c
  2254   001990  6ED9               	movwf	fsr2l,c
  2255   001992  0E05               	movlw	high _dbuf
  2256   001994  2032               	addwfc	(dtoa@i+1)^(0+1280),w,c
  2257   001996  6EDA               	movwf	fsr2h,c
  2258   001998  C530  F4DF         	movff	dtoa@s,indf2
  2259   00199C                     l3078:
  2260                           
  2261                           ;/opt/microchip/xc8/v2.41/pic/sources/c99/common/doprnt.c: 526:     return (void) pad(fp
      +                          , &dbuf[i], w);
  2262   00199C  C526  F51B         	movff	dtoa@fp,pad@fp
  2263   0019A0  C527  F51C         	movff	dtoa@fp+1,pad@fp+1
  2264   0019A4  0E76               	movlw	low _dbuf
  2265   0019A6  2431               	addwf	dtoa@i^(0+1280),w,c
  2266   0019A8  6E1D               	movwf	pad@buf^(0+1280),c
  2267   0019AA  0E05               	movlw	high _dbuf
  2268   0019AC  2032               	addwfc	(dtoa@i+1)^(0+1280),w,c
  2269   0019AE  6E1E               	movwf	(pad@buf+1)^(0+1280),c
  2270   0019B0  C52E  F51F         	movff	dtoa@w,pad@p
  2271   0019B4  C52F  F520         	movff	dtoa@w+1,pad@p+1
  2272   0019B8  EC52  F00F         	call	_pad	;wreg free
  2273   0019BC  0012               	return		;funcret
  2274   0019BE                     __end_of_dtoa:
  2275                           	callstack 0
  2276                           
  2277 ;; *************** function _pad *****************
  2278 ;; Defined at:
  2279 ;;		line 152 in file "/opt/microchip/xc8/v2.41/pic/sources/c99/common/doprnt.c"
  2280 ;; Parameters:    Size  Location     Type
  2281 ;;  fp              2   26[COMRAM] PTR struct _IO_FILE
  2282 ;;		 -> NULL(0), 
  2283 ;;  buf             2   28[COMRAM] PTR unsigned char 
  2284 ;;		 -> dbuf(32), 
  2285 ;;  p               2   30[COMRAM] int 
  2286 ;; Auto vars:     Size  Location     Type
  2287 ;;  w               2   35[COMRAM] int 
  2288 ;;  i               2   33[COMRAM] int 
  2289 ;; Return value:  Size  Location     Type
  2290 ;;                  1    wreg      void 
  2291 ;; Registers used:
  2292 ;;		wreg, fsr1l, fsr1h, fsr2l, fsr2h, status,2, status,0, cstack
  2293 ;; Tracked objects:
  2294 ;;		On entry : 0/0
  2295 ;;		On exit  : 0/0
  2296 ;;		Unchanged: 0/0
  2297 ;; Data sizes:     COMRAM   BANK5   BANK6   BANK7   BANK8   BANK9  BANK10  BANK11  BANK12  BANK13  BANK14  BANK15  BANK1
      +6  BANK17  BANK18  BANK19  BANK20
  2298 ;;      Params:         6       0       0       0       0       0       0       0       0       0       0       0       
      +0       0       0       0       0
  2299 ;;      Locals:         4       0       0       0       0       0       0       0       0       0       0       0       
      +0       0       0       0       0
  2300 ;;      Temps:          1       0       0       0       0       0       0       0       0       0       0       0       
      +0       0       0       0       0
  2301 ;;      Totals:        11       0       0       0       0       0       0       0       0       0       0       0       
      +0       0       0       0       0
  2302 ;;Total ram usage:       11 bytes
  2303 ;; Hardware stack levels used: 1
  2304 ;; Hardware stack levels required when called: 7
  2305 ;; This function calls:
  2306 ;;		_fputc
  2307 ;;		_fputs
  2308 ;; This function is called by:
  2309 ;;		_dtoa
  2310 ;;		_utoa
  2311 ;; This function uses a non-reentrant model
  2312 ;;
  2313                           
  2314                           	psect	text11
  2315   001EA4                     __ptext11:
  2316                           	callstack 0
  2317   001EA4                     _pad:
  2318                           	callstack 115
  2319   001EA4                     
  2320                           ;/opt/microchip/xc8/v2.41/pic/sources/c99/common/doprnt.c: 152: static void pad(FILE *fp
      +                          , char *buf, int p);/opt/microchip/xc8/v2.41/pic/sources/c99/common/doprnt.c: 153: {;/op
      +                          t/microchip/xc8/v2.41/pic/sources/c99/common/doprnt.c: 154:     int i, w;;/opt/microchip
      +                          /xc8/v2.41/pic/sources/c99/common/doprnt.c: 164:     w = (p < 0) ? 0 : p;
  2321   001EA4  BE20               	btfsc	(pad@p+1)^(0+1280),7,c
  2322   001EA6  EF57  F00F         	goto	u1811
  2323   001EAA  EF59  F00F         	goto	u1810
  2324   001EAE                     u1811:
  2325   001EAE  EF5F  F00F         	goto	l3018
  2326   001EB2                     u1810:
  2327   001EB2  C51F  F524         	movff	pad@p,pad@w
  2328   001EB6  C520  F525         	movff	pad@p+1,pad@w+1
  2329   001EBA  EF63  F00F         	goto	l1437
  2330   001EBE                     l3018:
  2331   001EBE  0E00               	movlw	0
  2332   001EC0  6E25               	movwf	(pad@w+1)^(0+1280),c
  2333   001EC2  0E00               	movlw	0
  2334   001EC4  6E24               	movwf	pad@w^(0+1280),c
  2335   001EC6                     l1437:
  2336                           
  2337                           ;/opt/microchip/xc8/v2.41/pic/sources/c99/common/doprnt.c: 165:     i = 0;
  2338   001EC6  0E00               	movlw	0
  2339   001EC8  6E23               	movwf	(pad@i+1)^(0+1280),c
  2340   001ECA  0E00               	movlw	0
  2341   001ECC  6E22               	movwf	pad@i^(0+1280),c
  2342                           
  2343                           ;/opt/microchip/xc8/v2.41/pic/sources/c99/common/doprnt.c: 166:     while (i < w) {
  2344   001ECE  EF75  F00F         	goto	l3024
  2345   001ED2                     l3020:
  2346                           
  2347                           ;/opt/microchip/xc8/v2.41/pic/sources/c99/common/doprnt.c: 167:         fputc(' ', fp);
  2348   001ED2  0E00               	movlw	0
  2349   001ED4  6E0C               	movwf	(fputc@c+1)^(0+1280),c
  2350   001ED6  0E20               	movlw	32
  2351   001ED8  6E0B               	movwf	fputc@c^(0+1280),c
  2352   001EDA  C51B  F50D         	movff	pad@fp,fputc@fp
  2353   001EDE  C51C  F50E         	movff	pad@fp+1,fputc@fp+1
  2354   001EE2  EC57  F00D         	call	_fputc	;wreg free
  2355   001EE6                     
  2356                           ;/opt/microchip/xc8/v2.41/pic/sources/c99/common/doprnt.c: 168:         ++i;
  2357   001EE6  4A22               	infsnz	pad@i^(0+1280),f,c
  2358   001EE8  2A23               	incf	(pad@i+1)^(0+1280),f,c
  2359   001EEA                     l3024:
  2360                           
  2361                           ;/opt/microchip/xc8/v2.41/pic/sources/c99/common/doprnt.c: 166:     while (i < w) {
  2362   001EEA  5024               	movf	pad@w^(0+1280),w,c
  2363   001EEC  5C22               	subwf	pad@i^(0+1280),w,c
  2364   001EEE  5023               	movf	(pad@i+1)^(0+1280),w,c
  2365   001EF0  0A80               	xorlw	128
  2366   001EF2  6E21               	movwf	??_pad^(0+1280),c
  2367   001EF4  5025               	movf	(pad@w+1)^(0+1280),w,c
  2368   001EF6  0A80               	xorlw	128
  2369   001EF8  5821               	subwfb	??_pad^(0+1280),w,c
  2370   001EFA  A0D8               	btfss	status,0,c
  2371   001EFC  EF82  F00F         	goto	u1821
  2372   001F00  EF84  F00F         	goto	u1820
  2373   001F04                     u1821:
  2374   001F04  EF69  F00F         	goto	l3020
  2375   001F08                     u1820:
  2376   001F08                     
  2377                           ;/opt/microchip/xc8/v2.41/pic/sources/c99/common/doprnt.c: 175:         fputs((const cha
      +                          r *)buf, fp);
  2378   001F08  C51D  F514         	movff	pad@buf,fputs@s
  2379   001F0C  C51E  F515         	movff	pad@buf+1,fputs@s+1
  2380   001F10  C51B  F516         	movff	pad@fp,fputs@fp
  2381   001F14  C51C  F517         	movff	pad@fp+1,fputs@fp+1
  2382   001F18  ECEC  F010         	call	_fputs	;wreg free
  2383   001F1C  0012               	return		;funcret
  2384   001F1E                     __end_of_pad:
  2385                           	callstack 0
  2386                           
  2387 ;; *************** function _fputs *****************
  2388 ;; Defined at:
  2389 ;;		line 8 in file "/opt/microchip/xc8/v2.41/pic/sources/c99/common/nf_fputs.c"
  2390 ;; Parameters:    Size  Location     Type
  2391 ;;  s               2   19[COMRAM] PTR const unsigned char 
  2392 ;;		 -> dbuf(32), 
  2393 ;;  fp              2   21[COMRAM] PTR struct _IO_FILE
  2394 ;;		 -> NULL(0), 
  2395 ;; Auto vars:     Size  Location     Type
  2396 ;;  i               2   24[COMRAM] int 
  2397 ;;  c               1   23[COMRAM] unsigned char 
  2398 ;; Return value:  Size  Location     Type
  2399 ;;                  2   19[COMRAM] int 
  2400 ;; Registers used:
  2401 ;;		wreg, fsr1l, fsr1h, fsr2l, fsr2h, status,2, status,0, cstack
  2402 ;; Tracked objects:
  2403 ;;		On entry : 0/0
  2404 ;;		On exit  : 0/0
  2405 ;;		Unchanged: 0/0
  2406 ;; Data sizes:     COMRAM   BANK5   BANK6   BANK7   BANK8   BANK9  BANK10  BANK11  BANK12  BANK13  BANK14  BANK15  BANK1
      +6  BANK17  BANK18  BANK19  BANK20
  2407 ;;      Params:         4       0       0       0       0       0       0       0       0       0       0       0       
      +0       0       0       0       0
  2408 ;;      Locals:         3       0       0       0       0       0       0       0       0       0       0       0       
      +0       0       0       0       0
  2409 ;;      Temps:          0       0       0       0       0       0       0       0       0       0       0       0       
      +0       0       0       0       0
  2410 ;;      Totals:         7       0       0       0       0       0       0       0       0       0       0       0       
      +0       0       0       0       0
  2411 ;;Total ram usage:        7 bytes
  2412 ;; Hardware stack levels used: 1
  2413 ;; Hardware stack levels required when called: 6
  2414 ;; This function calls:
  2415 ;;		_fputc
  2416 ;; This function is called by:
  2417 ;;		_pad
  2418 ;; This function uses a non-reentrant model
  2419 ;;
  2420                           
  2421                           	psect	text12
  2422   0021D8                     __ptext12:
  2423                           	callstack 0
  2424   0021D8                     _fputs:
  2425                           	callstack 115
  2426   0021D8  0E00               	movlw	0
  2427   0021DA  6E1A               	movwf	(fputs@i+1)^(0+1280),c
  2428   0021DC  0E00               	movlw	0
  2429   0021DE  6E19               	movwf	fputs@i^(0+1280),c
  2430   0021E0  EFFD  F010         	goto	l2894
  2431   0021E4                     l2890:
  2432   0021E4  C518  F50B         	movff	fputs@c,fputc@c
  2433   0021E8  6A0C               	clrf	(fputc@c+1)^(0+1280),c
  2434   0021EA  C516  F50D         	movff	fputs@fp,fputc@fp
  2435   0021EE  C517  F50E         	movff	fputs@fp+1,fputc@fp+1
  2436   0021F2  EC57  F00D         	call	_fputc	;wreg free
  2437   0021F6  4A19               	infsnz	fputs@i^(0+1280),f,c
  2438   0021F8  2A1A               	incf	(fputs@i+1)^(0+1280),f,c
  2439   0021FA                     l2894:
  2440   0021FA  5019               	movf	fputs@i^(0+1280),w,c
  2441   0021FC  2414               	addwf	fputs@s^(0+1280),w,c
  2442   0021FE  6ED9               	movwf	fsr2l,c
  2443   002200  501A               	movf	(fputs@i+1)^(0+1280),w,c
  2444   002202  2015               	addwfc	(fputs@s+1)^(0+1280),w,c
  2445   002204  6EDA               	movwf	fsr2h,c
  2446   002206  50DF               	movf	indf2,w,c
  2447   002208  6E18               	movwf	fputs@c^(0+1280),c
  2448   00220A  5018               	movf	fputs@c^(0+1280),w,c
  2449   00220C  A4D8               	btfss	status,2,c
  2450   00220E  EF0B  F011         	goto	u1621
  2451   002212  EF0D  F011         	goto	u1620
  2452   002216                     u1621:
  2453   002216  EFF2  F010         	goto	l2890
  2454   00221A                     u1620:
  2455   00221A  0012               	return		;funcret
  2456   00221C                     __end_of_fputs:
  2457                           	callstack 0
  2458                           
  2459 ;; *************** function _fputc *****************
  2460 ;; Defined at:
  2461 ;;		line 8 in file "/opt/microchip/xc8/v2.41/pic/sources/c99/common/nf_fputc.c"
  2462 ;; Parameters:    Size  Location     Type
  2463 ;;  c               2   10[COMRAM] int 
  2464 ;;  fp              2   12[COMRAM] PTR struct _IO_FILE
  2465 ;;		 -> NULL(0), 
  2466 ;; Auto vars:     Size  Location     Type
  2467 ;;		None
  2468 ;; Return value:  Size  Location     Type
  2469 ;;                  2   10[COMRAM] int 
  2470 ;; Registers used:
  2471 ;;		wreg, fsr1l, fsr1h, fsr2l, fsr2h, status,2, status,0, cstack
  2472 ;; Tracked objects:
  2473 ;;		On entry : 0/0
  2474 ;;		On exit  : 0/0
  2475 ;;		Unchanged: 0/0
  2476 ;; Data sizes:     COMRAM   BANK5   BANK6   BANK7   BANK8   BANK9  BANK10  BANK11  BANK12  BANK13  BANK14  BANK15  BANK1
      +6  BANK17  BANK18  BANK19  BANK20
  2477 ;;      Params:         4       0       0       0       0       0       0       0       0       0       0       0       
      +0       0       0       0       0
  2478 ;;      Locals:         0       0       0       0       0       0       0       0       0       0       0       0       
      +0       0       0       0       0
  2479 ;;      Temps:          5       0       0       0       0       0       0       0       0       0       0       0       
      +0       0       0       0       0
  2480 ;;      Totals:         9       0       0       0       0       0       0       0       0       0       0       0       
      +0       0       0       0       0
  2481 ;;Total ram usage:        9 bytes
  2482 ;; Hardware stack levels used: 1
  2483 ;; Hardware stack levels required when called: 5
  2484 ;; This function calls:
  2485 ;;		_putch
  2486 ;; This function is called by:
  2487 ;;		_pad
  2488 ;;		_vfpfcnvrt
  2489 ;;		_fputs
  2490 ;; This function uses a non-reentrant model
  2491 ;;
  2492                           
  2493                           	psect	text13
  2494   001AAE                     __ptext13:
  2495                           	callstack 0
  2496   001AAE                     _fputc:
  2497                           	callstack 115
  2498   001AAE  500D               	movf	fputc@fp^(0+1280),w,c
  2499   001AB0  100E               	iorwf	(fputc@fp+1)^(0+1280),w,c
  2500   001AB2  B4D8               	btfsc	status,2,c
  2501   001AB4  EF5E  F00D         	goto	u1581
  2502   001AB8  EF60  F00D         	goto	u1580
  2503   001ABC                     u1581:
  2504   001ABC  EF69  F00D         	goto	l2878
  2505   001AC0                     u1580:
  2506   001AC0  500D               	movf	fputc@fp^(0+1280),w,c
  2507   001AC2  100E               	iorwf	(fputc@fp+1)^(0+1280),w,c
  2508   001AC4  A4D8               	btfss	status,2,c
  2509   001AC6  EF67  F00D         	goto	u1591
  2510   001ACA  EF69  F00D         	goto	u1590
  2511   001ACE                     u1591:
  2512   001ACE  EF6E  F00D         	goto	l2880
  2513   001AD2                     u1590:
  2514   001AD2                     l2878:
  2515   001AD2  500B               	movf	fputc@c^(0+1280),w,c
  2516   001AD4  EC53  F012         	call	_putch
  2517   001AD8  EFBB  F00D         	goto	l1510
  2518   001ADC                     l2880:
  2519   001ADC  EE20 F00A          	lfsr	2,10
  2520   001AE0  500D               	movf	fputc@fp^(0+1280),w,c
  2521   001AE2  26D9               	addwf	fsr2l,f,c
  2522   001AE4  500E               	movf	(fputc@fp+1)^(0+1280),w,c
  2523   001AE6  22DA               	addwfc	fsr2h,f,c
  2524   001AE8  50DE               	movf	postinc2,w,c
  2525   001AEA  10DE               	iorwf	postinc2,w,c
  2526   001AEC  B4D8               	btfsc	status,2,c
  2527   001AEE  EF7B  F00D         	goto	u1601
  2528   001AF2  EF7D  F00D         	goto	u1600
  2529   001AF6                     u1601:
  2530   001AF6  EF98  F00D         	goto	l2884
  2531   001AFA                     u1600:
  2532   001AFA  EE20 F00A          	lfsr	2,10
  2533   001AFE  500D               	movf	fputc@fp^(0+1280),w,c
  2534   001B00  26D9               	addwf	fsr2l,f,c
  2535   001B02  500E               	movf	(fputc@fp+1)^(0+1280),w,c
  2536   001B04  22DA               	addwfc	fsr2h,f,c
  2537   001B06  EE10 F003          	lfsr	1,3
  2538   001B0A  500D               	movf	fputc@fp^(0+1280),w,c
  2539   001B0C  26E1               	addwf	fsr1l,f,c
  2540   001B0E  500E               	movf	(fputc@fp+1)^(0+1280),w,c
  2541   001B10  22E2               	addwfc	fsr1h,f,c
  2542   001B12  50DE               	movf	postinc2,w,c
  2543   001B14  5CE6               	subwf	postinc1,w,c
  2544   001B16  50E6               	movf	postinc1,w,c
  2545   001B18  0A80               	xorlw	128
  2546   001B1A  6E13               	movwf	(??_fputc+4)^(0+1280),c
  2547   001B1C  50DE               	movf	postinc2,w,c
  2548   001B1E  0A80               	xorlw	128
  2549   001B20  5813               	subwfb	(??_fputc+4)^(0+1280),w,c
  2550   001B22  B0D8               	btfsc	status,0,c
  2551   001B24  EF96  F00D         	goto	u1611
  2552   001B28  EF98  F00D         	goto	u1610
  2553   001B2C                     u1611:
  2554   001B2C  EFBB  F00D         	goto	l1510
  2555   001B30                     u1610:
  2556   001B30                     l2884:
  2557   001B30  EE20 F003          	lfsr	2,3
  2558   001B34  500D               	movf	fputc@fp^(0+1280),w,c
  2559   001B36  26D9               	addwf	fsr2l,f,c
  2560   001B38  500E               	movf	(fputc@fp+1)^(0+1280),w,c
  2561   001B3A  22DA               	addwfc	fsr2h,f,c
  2562   001B3C  C4DE F50F          	movff	postinc2,??_fputc
  2563   001B40  C4DD F510          	movff	postdec2,??_fputc+1
  2564   001B44  C50D  F4D9         	movff	fputc@fp,fsr2l
  2565   001B48  C50E  F4DA         	movff	fputc@fp+1,fsr2h
  2566   001B4C  C4DE F511          	movff	postinc2,??_fputc+2
  2567   001B50  C4DD F512          	movff	postdec2,??_fputc+3
  2568   001B54  500F               	movf	??_fputc^(0+1280),w,c
  2569   001B56  2411               	addwf	(??_fputc+2)^(0+1280),w,c
  2570   001B58  6ED9               	movwf	fsr2l,c
  2571   001B5A  5010               	movf	(??_fputc+1)^(0+1280),w,c
  2572   001B5C  2012               	addwfc	(??_fputc+3)^(0+1280),w,c
  2573   001B5E  6EDA               	movwf	fsr2h,c
  2574   001B60  C50B  F4DF         	movff	fputc@c,indf2
  2575   001B64  EE20 F003          	lfsr	2,3
  2576   001B68  500D               	movf	fputc@fp^(0+1280),w,c
  2577   001B6A  26D9               	addwf	fsr2l,f,c
  2578   001B6C  500E               	movf	(fputc@fp+1)^(0+1280),w,c
  2579   001B6E  22DA               	addwfc	fsr2h,f,c
  2580   001B70  2ADE               	incf	postinc2,f,c
  2581   001B72  0E00               	movlw	0
  2582   001B74  22DD               	addwfc	postdec2,f,c
  2583   001B76                     l1510:
  2584   001B76  0012               	return		;funcret
  2585   001B78                     __end_of_fputc:
  2586                           	callstack 0
  2587                           
  2588 ;; *************** function _putch *****************
  2589 ;; Defined at:
  2590 ;;		line 299 in file "mcc_generated_files/uart/src/uart1.c"
  2591 ;; Parameters:    Size  Location     Type
  2592 ;;  txData          1    wreg     unsigned char 
  2593 ;; Auto vars:     Size  Location     Type
  2594 ;;  txData          1    9[COMRAM] unsigned char 
  2595 ;; Return value:  Size  Location     Type
  2596 ;;                  1    wreg      void 
  2597 ;; Registers used:
  2598 ;;		wreg, status,2, cstack
  2599 ;; Tracked objects:
  2600 ;;		On entry : 0/0
  2601 ;;		On exit  : 0/0
  2602 ;;		Unchanged: 0/0
  2603 ;; Data sizes:     COMRAM   BANK5   BANK6   BANK7   BANK8   BANK9  BANK10  BANK11  BANK12  BANK13  BANK14  BANK15  BANK1
      +6  BANK17  BANK18  BANK19  BANK20
  2604 ;;      Params:         0       0       0       0       0       0       0       0       0       0       0       0       
      +0       0       0       0       0
  2605 ;;      Locals:         1       0       0       0       0       0       0       0       0       0       0       0       
      +0       0       0       0       0
  2606 ;;      Temps:          0       0       0       0       0       0       0       0       0       0       0       0       
      +0       0       0       0       0
  2607 ;;      Totals:         1       0       0       0       0       0       0       0       0       0       0       0       
      +0       0       0       0       0
  2608 ;;Total ram usage:        1 bytes
  2609 ;; Hardware stack levels used: 1
  2610 ;; Hardware stack levels required when called: 4
  2611 ;; This function calls:
  2612 ;;		_UART1_IsTxReady
  2613 ;;		_UART1_Write
  2614 ;; This function is called by:
  2615 ;;		_fputc
  2616 ;; This function uses a non-reentrant model
  2617 ;;
  2618                           
  2619                           	psect	text14
  2620   0024A6                     __ptext14:
  2621                           	callstack 0
  2622   0024A6                     _putch:
  2623                           	callstack 115
  2624                           
  2625                           ;incstack = 0
  2626                           ;putch@txData stored from wreg
  2627   0024A6  6E0A               	movwf	putch@txData^(0+1280),c
  2628   0024A8                     l2868:
  2629   0024A8  EC17  F012         	call	_UART1_IsTxReady	;wreg free
  2630   0024AC  0900               	iorlw	0
  2631   0024AE  B4D8               	btfsc	status,2,c
  2632   0024B0  EF5C  F012         	goto	u1571
  2633   0024B4  EF5E  F012         	goto	u1570
  2634   0024B8                     u1571:
  2635   0024B8  EF54  F012         	goto	l2868
  2636   0024BC                     u1570:
  2637   0024BC                     
  2638                           ;mcc_generated_files/uart/src/uart1.c: 302:     return UART1_Write(txData);;	Return valu
      +                          e of _putch is never used
  2639   0024BC  500A               	movf	putch@txData^(0+1280),w,c
  2640   0024BE  ECFE  F012         	call	_UART1_Write
  2641   0024C2  0012               	return		;funcret
  2642   0024C4                     __end_of_putch:
  2643                           	callstack 0
  2644                           
  2645 ;; *************** function _UART1_Write *****************
  2646 ;; Defined at:
  2647 ;;		line 287 in file "mcc_generated_files/uart/src/uart1.c"
  2648 ;; Parameters:    Size  Location     Type
  2649 ;;  txData          1    wreg     unsigned char 
  2650 ;; Auto vars:     Size  Location     Type
  2651 ;;  txData          1    8[COMRAM] unsigned char 
  2652 ;; Return value:  Size  Location     Type
  2653 ;;                  1    wreg      void 
  2654 ;; Registers used:
  2655 ;;		wreg
  2656 ;; Tracked objects:
  2657 ;;		On entry : 0/0
  2658 ;;		On exit  : 0/0
  2659 ;;		Unchanged: 0/0
  2660 ;; Data sizes:     COMRAM   BANK5   BANK6   BANK7   BANK8   BANK9  BANK10  BANK11  BANK12  BANK13  BANK14  BANK15  BANK1
      +6  BANK17  BANK18  BANK19  BANK20
  2661 ;;      Params:         0       0       0       0       0       0       0       0       0       0       0       0       
      +0       0       0       0       0
  2662 ;;      Locals:         1       0       0       0       0       0       0       0       0       0       0       0       
      +0       0       0       0       0
  2663 ;;      Temps:          0       0       0       0       0       0       0       0       0       0       0       0       
      +0       0       0       0       0
  2664 ;;      Totals:         1       0       0       0       0       0       0       0       0       0       0       0       
      +0       0       0       0       0
  2665 ;;Total ram usage:        1 bytes
  2666 ;; Hardware stack levels used: 1
  2667 ;; Hardware stack levels required when called: 3
  2668 ;; This function calls:
  2669 ;;		Nothing
  2670 ;; This function is called by:
  2671 ;;		_putch
  2672 ;; This function uses a non-reentrant model
  2673 ;;
  2674                           
  2675                           	psect	text15
  2676   0025FC                     __ptext15:
  2677                           	callstack 0
  2678   0025FC                     _UART1_Write:
  2679                           	callstack 115
  2680                           
  2681                           ;incstack = 0
  2682                           ;UART1_Write@txData stored from wreg
  2683   0025FC  6E09               	movwf	UART1_Write@txData^(0+1280),c
  2684   0025FE                     
  2685                           ;mcc_generated_files/uart/src/uart1.c: 287: void UART1_Write(uint8_t txData);mcc_generat
      +                          ed_files/uart/src/uart1.c: 288: {;mcc_generated_files/uart/src/uart1.c: 289:     U1TXB =
      +                           txData;
  2686   0025FE  C509  F2A3         	movff	UART1_Write@txData,675	;volatile
  2687   002602  0012               	return		;funcret
  2688   002604                     __end_of_UART1_Write:
  2689                           	callstack 0
  2690                           
  2691 ;; *************** function _UART1_IsTxReady *****************
  2692 ;; Defined at:
  2693 ;;		line 247 in file "mcc_generated_files/uart/src/uart1.c"
  2694 ;; Parameters:    Size  Location     Type
  2695 ;;		None
  2696 ;; Auto vars:     Size  Location     Type
  2697 ;;		None
  2698 ;; Return value:  Size  Location     Type
  2699 ;;                  1    wreg      _Bool 
  2700 ;; Registers used:
  2701 ;;		wreg, status,2
  2702 ;; Tracked objects:
  2703 ;;		On entry : 0/0
  2704 ;;		On exit  : 0/0
  2705 ;;		Unchanged: 0/0
  2706 ;; Data sizes:     COMRAM   BANK5   BANK6   BANK7   BANK8   BANK9  BANK10  BANK11  BANK12  BANK13  BANK14  BANK15  BANK1
      +6  BANK17  BANK18  BANK19  BANK20
  2707 ;;      Params:         0       0       0       0       0       0       0       0       0       0       0       0       
      +0       0       0       0       0
  2708 ;;      Locals:         1       0       0       0       0       0       0       0       0       0       0       0       
      +0       0       0       0       0
  2709 ;;      Temps:          0       0       0       0       0       0       0       0       0       0       0       0       
      +0       0       0       0       0
  2710 ;;      Totals:         1       0       0       0       0       0       0       0       0       0       0       0       
      +0       0       0       0       0
  2711 ;;Total ram usage:        1 bytes
  2712 ;; Hardware stack levels used: 1
  2713 ;; Hardware stack levels required when called: 3
  2714 ;; This function calls:
  2715 ;;		Nothing
  2716 ;; This function is called by:
  2717 ;;		_putch
  2718 ;; This function uses a non-reentrant model
  2719 ;;
  2720                           
  2721                           	psect	text16
  2722   00242E                     __ptext16:
  2723                           	callstack 0
  2724   00242E                     _UART1_IsTxReady:
  2725                           	callstack 115
  2726   00242E                     
  2727                           ;mcc_generated_files/uart/src/uart1.c: 249:     return (_Bool)(U1FIFObits.TXBE && U1CON0
      +                          bits.TXEN);
  2728   00242E  0E00               	movlw	0
  2729   002430  6E09               	movwf	_UART1_IsTxReady$722^(0+1280),c
  2730   002432  0102               	movlb	2	; () banked
  2731   002434  ABB0               	btfss	176,5,b	;volatile
  2732   002436  EF1F  F012         	goto	u1551
  2733   00243A  EF21  F012         	goto	u1550
  2734   00243E                     u1551:
  2735   00243E  EF2A  F012         	goto	l327
  2736   002442                     u1550:
  2737   002442                     
  2738                           ; BSR set to: 2
  2739   002442  ABAB               	btfss	171,5,b	;volatile
  2740   002444  EF26  F012         	goto	u1561
  2741   002448  EF28  F012         	goto	u1560
  2742   00244C                     u1561:
  2743   00244C  EF2A  F012         	goto	l327
  2744   002450                     u1560:
  2745   002450                     
  2746                           ; BSR set to: 2
  2747   002450  0E01               	movlw	1
  2748   002452  6E09               	movwf	_UART1_IsTxReady$722^(0+1280),c
  2749   002454                     l327:
  2750                           
  2751                           ; BSR set to: 2
  2752   002454  5009               	movf	_UART1_IsTxReady$722^(0+1280),w,c
  2753   002456                     
  2754                           ; BSR set to: 2
  2755   002456  0012               	return		;funcret
  2756   002458                     __end_of_UART1_IsTxReady:
  2757                           	callstack 0
  2758                           
  2759 ;; *************** function _abs *****************
  2760 ;; Defined at:
  2761 ;;		line 1 in file "/opt/microchip/xc8/v2.41/pic/sources/c99/common/abs.c"
  2762 ;; Parameters:    Size  Location     Type
  2763 ;;  a               2   14[COMRAM] int 
  2764 ;; Auto vars:     Size  Location     Type
  2765 ;;		None
  2766 ;; Return value:  Size  Location     Type
  2767 ;;                  2   14[COMRAM] int 
  2768 ;; Registers used:
  2769 ;;		wreg, status,2, status,0
  2770 ;; Tracked objects:
  2771 ;;		On entry : 0/0
  2772 ;;		On exit  : 0/0
  2773 ;;		Unchanged: 0/0
  2774 ;; Data sizes:     COMRAM   BANK5   BANK6   BANK7   BANK8   BANK9  BANK10  BANK11  BANK12  BANK13  BANK14  BANK15  BANK1
      +6  BANK17  BANK18  BANK19  BANK20
  2775 ;;      Params:         2       0       0       0       0       0       0       0       0       0       0       0       
      +0       0       0       0       0
  2776 ;;      Locals:         0       0       0       0       0       0       0       0       0       0       0       0       
      +0       0       0       0       0
  2777 ;;      Temps:          2       0       0       0       0       0       0       0       0       0       0       0       
      +0       0       0       0       0
  2778 ;;      Totals:         4       0       0       0       0       0       0       0       0       0       0       0       
      +0       0       0       0       0
  2779 ;;Total ram usage:        4 bytes
  2780 ;; Hardware stack levels used: 1
  2781 ;; Hardware stack levels required when called: 3
  2782 ;; This function calls:
  2783 ;;		Nothing
  2784 ;; This function is called by:
  2785 ;;		_dtoa
  2786 ;; This function uses a non-reentrant model
  2787 ;;
  2788                           
  2789                           	psect	text17
  2790   00225C                     __ptext17:
  2791                           	callstack 0
  2792   00225C                     _abs:
  2793                           	callstack 119
  2794   00225C  BE10               	btfsc	(abs@a+1)^(0+1280),7,c
  2795   00225E  EF3B  F011         	goto	u1830
  2796   002262  5010               	movf	(abs@a+1)^(0+1280),w,c
  2797   002264  E106               	bnz	u1831
  2798   002266  040F               	decf	abs@a^(0+1280),w,c
  2799   002268  B0D8               	btfsc	status,0,c
  2800   00226A  EF39  F011         	goto	u1831
  2801   00226E  EF3B  F011         	goto	u1830
  2802   002272                     u1831:
  2803   002272  EF49  F011         	goto	l1495
  2804   002276                     u1830:
  2805   002276  C50F  F511         	movff	abs@a,??_abs
  2806   00227A  C510  F512         	movff	abs@a+1,??_abs+1
  2807   00227E  1E11               	comf	??_abs^(0+1280),f,c
  2808   002280  1E12               	comf	(??_abs+1)^(0+1280),f,c
  2809   002282  4A11               	infsnz	??_abs^(0+1280),f,c
  2810   002284  2A12               	incf	(??_abs+1)^(0+1280),f,c
  2811   002286  C511  F50F         	movff	??_abs,?_abs
  2812   00228A  C512  F510         	movff	??_abs+1,?_abs+1
  2813   00228E  EF4D  F011         	goto	l1498
  2814   002292                     l1495:
  2815   002292  C50F  F50F         	movff	abs@a,?_abs
  2816   002296  C510  F510         	movff	abs@a+1,?_abs+1
  2817   00229A                     l1498:
  2818   00229A  0012               	return		;funcret
  2819   00229C                     __end_of_abs:
  2820                           	callstack 0
  2821                           
  2822 ;; *************** function ___awmod *****************
  2823 ;; Defined at:
  2824 ;;		line 7 in file "/opt/microchip/xc8/v2.41/pic/sources/c99/common/awmod.c"
  2825 ;; Parameters:    Size  Location     Type
  2826 ;;  dividend        2    8[COMRAM] int 
  2827 ;;  divisor         2   10[COMRAM] int 
  2828 ;; Auto vars:     Size  Location     Type
  2829 ;;  sign            1   13[COMRAM] unsigned char 
  2830 ;;  counter         1   12[COMRAM] unsigned char 
  2831 ;; Return value:  Size  Location     Type
  2832 ;;                  2    8[COMRAM] int 
  2833 ;; Registers used:
  2834 ;;		wreg, status,2, status,0
  2835 ;; Tracked objects:
  2836 ;;		On entry : 0/0
  2837 ;;		On exit  : 0/0
  2838 ;;		Unchanged: 0/0
  2839 ;; Data sizes:     COMRAM   BANK5   BANK6   BANK7   BANK8   BANK9  BANK10  BANK11  BANK12  BANK13  BANK14  BANK15  BANK1
      +6  BANK17  BANK18  BANK19  BANK20
  2840 ;;      Params:         4       0       0       0       0       0       0       0       0       0       0       0       
      +0       0       0       0       0
  2841 ;;      Locals:         2       0       0       0       0       0       0       0       0       0       0       0       
      +0       0       0       0       0
  2842 ;;      Temps:          0       0       0       0       0       0       0       0       0       0       0       0       
      +0       0       0       0       0
  2843 ;;      Totals:         6       0       0       0       0       0       0       0       0       0       0       0       
      +0       0       0       0       0
  2844 ;;Total ram usage:        6 bytes
  2845 ;; Hardware stack levels used: 1
  2846 ;; Hardware stack levels required when called: 3
  2847 ;; This function calls:
  2848 ;;		Nothing
  2849 ;; This function is called by:
  2850 ;;		_dtoa
  2851 ;; This function uses a non-reentrant model
  2852 ;;
  2853                           
  2854                           	psect	text18
  2855   001C3C                     __ptext18:
  2856                           	callstack 0
  2857   001C3C                     ___awmod:
  2858                           	callstack 119
  2859   001C3C  0E00               	movlw	0
  2860   001C3E  6E0E               	movwf	___awmod@sign^(0+1280),c
  2861   001C40  BE0A               	btfsc	(___awmod@dividend+1)^(0+1280),7,c
  2862   001C42  EF27  F00E         	goto	u1690
  2863   001C46  EF25  F00E         	goto	u1691
  2864   001C4A                     u1691:
  2865   001C4A  EF2D  F00E         	goto	l2948
  2866   001C4E                     u1690:
  2867   001C4E  6C09               	negf	___awmod@dividend^(0+1280),c
  2868   001C50  1E0A               	comf	(___awmod@dividend+1)^(0+1280),f,c
  2869   001C52  B0D8               	btfsc	status,0,c
  2870   001C54  2A0A               	incf	(___awmod@dividend+1)^(0+1280),f,c
  2871   001C56  0E01               	movlw	1
  2872   001C58  6E0E               	movwf	___awmod@sign^(0+1280),c
  2873   001C5A                     l2948:
  2874   001C5A  BE0C               	btfsc	(___awmod@divisor+1)^(0+1280),7,c
  2875   001C5C  EF34  F00E         	goto	u1700
  2876   001C60  EF32  F00E         	goto	u1701
  2877   001C64                     u1701:
  2878   001C64  EF38  F00E         	goto	l2952
  2879   001C68                     u1700:
  2880   001C68  6C0B               	negf	___awmod@divisor^(0+1280),c
  2881   001C6A  1E0C               	comf	(___awmod@divisor+1)^(0+1280),f,c
  2882   001C6C  B0D8               	btfsc	status,0,c
  2883   001C6E  2A0C               	incf	(___awmod@divisor+1)^(0+1280),f,c
  2884   001C70                     l2952:
  2885   001C70  500B               	movf	___awmod@divisor^(0+1280),w,c
  2886   001C72  100C               	iorwf	(___awmod@divisor+1)^(0+1280),w,c
  2887   001C74  B4D8               	btfsc	status,2,c
  2888   001C76  EF3F  F00E         	goto	u1711
  2889   001C7A  EF41  F00E         	goto	u1710
  2890   001C7E                     u1711:
  2891   001C7E  EF65  F00E         	goto	l2968
  2892   001C82                     u1710:
  2893   001C82  0E01               	movlw	1
  2894   001C84  6E0D               	movwf	___awmod@counter^(0+1280),c
  2895   001C86  EF49  F00E         	goto	l2958
  2896   001C8A                     l2956:
  2897   001C8A  90D8               	bcf	status,0,c
  2898   001C8C  360B               	rlcf	___awmod@divisor^(0+1280),f,c
  2899   001C8E  360C               	rlcf	(___awmod@divisor+1)^(0+1280),f,c
  2900   001C90  2A0D               	incf	___awmod@counter^(0+1280),f,c
  2901   001C92                     l2958:
  2902   001C92  AE0C               	btfss	(___awmod@divisor+1)^(0+1280),7,c
  2903   001C94  EF4E  F00E         	goto	u1721
  2904   001C98  EF50  F00E         	goto	u1720
  2905   001C9C                     u1721:
  2906   001C9C  EF45  F00E         	goto	l2956
  2907   001CA0                     u1720:
  2908   001CA0                     l2960:
  2909   001CA0  500B               	movf	___awmod@divisor^(0+1280),w,c
  2910   001CA2  5C09               	subwf	___awmod@dividend^(0+1280),w,c
  2911   001CA4  500C               	movf	(___awmod@divisor+1)^(0+1280),w,c
  2912   001CA6  580A               	subwfb	(___awmod@dividend+1)^(0+1280),w,c
  2913   001CA8  A0D8               	btfss	status,0,c
  2914   001CAA  EF59  F00E         	goto	u1731
  2915   001CAE  EF5B  F00E         	goto	u1730
  2916   001CB2                     u1731:
  2917   001CB2  EF5F  F00E         	goto	l2964
  2918   001CB6                     u1730:
  2919   001CB6  500B               	movf	___awmod@divisor^(0+1280),w,c
  2920   001CB8  5E09               	subwf	___awmod@dividend^(0+1280),f,c
  2921   001CBA  500C               	movf	(___awmod@divisor+1)^(0+1280),w,c
  2922   001CBC  5A0A               	subwfb	(___awmod@dividend+1)^(0+1280),f,c
  2923   001CBE                     l2964:
  2924   001CBE  90D8               	bcf	status,0,c
  2925   001CC0  320C               	rrcf	(___awmod@divisor+1)^(0+1280),f,c
  2926   001CC2  320B               	rrcf	___awmod@divisor^(0+1280),f,c
  2927   001CC4  2E0D               	decfsz	___awmod@counter^(0+1280),f,c
  2928   001CC6  EF50  F00E         	goto	l2960
  2929   001CCA                     l2968:
  2930   001CCA  500E               	movf	___awmod@sign^(0+1280),w,c
  2931   001CCC  B4D8               	btfsc	status,2,c
  2932   001CCE  EF6B  F00E         	goto	u1741
  2933   001CD2  EF6D  F00E         	goto	u1740
  2934   001CD6                     u1741:
  2935   001CD6  EF71  F00E         	goto	l2972
  2936   001CDA                     u1740:
  2937   001CDA  6C09               	negf	___awmod@dividend^(0+1280),c
  2938   001CDC  1E0A               	comf	(___awmod@dividend+1)^(0+1280),f,c
  2939   001CDE  B0D8               	btfsc	status,0,c
  2940   001CE0  2A0A               	incf	(___awmod@dividend+1)^(0+1280),f,c
  2941   001CE2                     l2972:
  2942   001CE2  C509  F509         	movff	___awmod@dividend,?___awmod
  2943   001CE6  C50A  F50A         	movff	___awmod@dividend+1,?___awmod+1
  2944   001CEA  0012               	return		;funcret
  2945   001CEC                     __end_of___awmod:
  2946                           	callstack 0
  2947                           
  2948 ;; *************** function ___awdiv *****************
  2949 ;; Defined at:
  2950 ;;		line 7 in file "/opt/microchip/xc8/v2.41/pic/sources/c99/common/awdiv.c"
  2951 ;; Parameters:    Size  Location     Type
  2952 ;;  dividend        2    8[COMRAM] int 
  2953 ;;  divisor         2   10[COMRAM] int 
  2954 ;; Auto vars:     Size  Location     Type
  2955 ;;  quotient        2   14[COMRAM] int 
  2956 ;;  sign            1   13[COMRAM] unsigned char 
  2957 ;;  counter         1   12[COMRAM] unsigned char 
  2958 ;; Return value:  Size  Location     Type
  2959 ;;                  2    8[COMRAM] int 
  2960 ;; Registers used:
  2961 ;;		wreg, status,2, status,0
  2962 ;; Tracked objects:
  2963 ;;		On entry : 0/0
  2964 ;;		On exit  : 0/0
  2965 ;;		Unchanged: 0/0
  2966 ;; Data sizes:     COMRAM   BANK5   BANK6   BANK7   BANK8   BANK9  BANK10  BANK11  BANK12  BANK13  BANK14  BANK15  BANK1
      +6  BANK17  BANK18  BANK19  BANK20
  2967 ;;      Params:         4       0       0       0       0       0       0       0       0       0       0       0       
      +0       0       0       0       0
  2968 ;;      Locals:         4       0       0       0       0       0       0       0       0       0       0       0       
      +0       0       0       0       0
  2969 ;;      Temps:          0       0       0       0       0       0       0       0       0       0       0       0       
      +0       0       0       0       0
  2970 ;;      Totals:         8       0       0       0       0       0       0       0       0       0       0       0       
      +0       0       0       0       0
  2971 ;;Total ram usage:        8 bytes
  2972 ;; Hardware stack levels used: 1
  2973 ;; Hardware stack levels required when called: 3
  2974 ;; This function calls:
  2975 ;;		Nothing
  2976 ;; This function is called by:
  2977 ;;		_dtoa
  2978 ;; This function uses a non-reentrant model
  2979 ;;
  2980                           
  2981                           	psect	text19
  2982   001B78                     __ptext19:
  2983                           	callstack 0
  2984   001B78                     ___awdiv:
  2985                           	callstack 119
  2986   001B78  0E00               	movlw	0
  2987   001B7A  6E0E               	movwf	___awdiv@sign^(0+1280),c
  2988   001B7C  BE0C               	btfsc	(___awdiv@divisor+1)^(0+1280),7,c
  2989   001B7E  EFC5  F00D         	goto	u1630
  2990   001B82  EFC3  F00D         	goto	u1631
  2991   001B86                     u1631:
  2992   001B86  EFCB  F00D         	goto	l2904
  2993   001B8A                     u1630:
  2994   001B8A  6C0B               	negf	___awdiv@divisor^(0+1280),c
  2995   001B8C  1E0C               	comf	(___awdiv@divisor+1)^(0+1280),f,c
  2996   001B8E  B0D8               	btfsc	status,0,c
  2997   001B90  2A0C               	incf	(___awdiv@divisor+1)^(0+1280),f,c
  2998   001B92  0E01               	movlw	1
  2999   001B94  6E0E               	movwf	___awdiv@sign^(0+1280),c
  3000   001B96                     l2904:
  3001   001B96  BE0A               	btfsc	(___awdiv@dividend+1)^(0+1280),7,c
  3002   001B98  EFD2  F00D         	goto	u1640
  3003   001B9C  EFD0  F00D         	goto	u1641
  3004   001BA0                     u1641:
  3005   001BA0  EFD8  F00D         	goto	l2910
  3006   001BA4                     u1640:
  3007   001BA4  6C09               	negf	___awdiv@dividend^(0+1280),c
  3008   001BA6  1E0A               	comf	(___awdiv@dividend+1)^(0+1280),f,c
  3009   001BA8  B0D8               	btfsc	status,0,c
  3010   001BAA  2A0A               	incf	(___awdiv@dividend+1)^(0+1280),f,c
  3011   001BAC  0E01               	movlw	1
  3012   001BAE  1A0E               	xorwf	___awdiv@sign^(0+1280),f,c
  3013   001BB0                     l2910:
  3014   001BB0  0E00               	movlw	0
  3015   001BB2  6E10               	movwf	(___awdiv@quotient+1)^(0+1280),c
  3016   001BB4  0E00               	movlw	0
  3017   001BB6  6E0F               	movwf	___awdiv@quotient^(0+1280),c
  3018   001BB8  500B               	movf	___awdiv@divisor^(0+1280),w,c
  3019   001BBA  100C               	iorwf	(___awdiv@divisor+1)^(0+1280),w,c
  3020   001BBC  B4D8               	btfsc	status,2,c
  3021   001BBE  EFE3  F00D         	goto	u1651
  3022   001BC2  EFE5  F00D         	goto	u1650
  3023   001BC6                     u1651:
  3024   001BC6  EF0D  F00E         	goto	l2932
  3025   001BCA                     u1650:
  3026   001BCA  0E01               	movlw	1
  3027   001BCC  6E0D               	movwf	___awdiv@counter^(0+1280),c
  3028   001BCE  EFED  F00D         	goto	l2918
  3029   001BD2                     l2916:
  3030   001BD2  90D8               	bcf	status,0,c
  3031   001BD4  360B               	rlcf	___awdiv@divisor^(0+1280),f,c
  3032   001BD6  360C               	rlcf	(___awdiv@divisor+1)^(0+1280),f,c
  3033   001BD8  2A0D               	incf	___awdiv@counter^(0+1280),f,c
  3034   001BDA                     l2918:
  3035   001BDA  AE0C               	btfss	(___awdiv@divisor+1)^(0+1280),7,c
  3036   001BDC  EFF2  F00D         	goto	u1661
  3037   001BE0  EFF4  F00D         	goto	u1660
  3038   001BE4                     u1661:
  3039   001BE4  EFE9  F00D         	goto	l2916
  3040   001BE8                     u1660:
  3041   001BE8                     l2920:
  3042   001BE8  90D8               	bcf	status,0,c
  3043   001BEA  360F               	rlcf	___awdiv@quotient^(0+1280),f,c
  3044   001BEC  3610               	rlcf	(___awdiv@quotient+1)^(0+1280),f,c
  3045   001BEE  500B               	movf	___awdiv@divisor^(0+1280),w,c
  3046   001BF0  5C09               	subwf	___awdiv@dividend^(0+1280),w,c
  3047   001BF2  500C               	movf	(___awdiv@divisor+1)^(0+1280),w,c
  3048   001BF4  580A               	subwfb	(___awdiv@dividend+1)^(0+1280),w,c
  3049   001BF6  A0D8               	btfss	status,0,c
  3050   001BF8  EF00  F00E         	goto	u1671
  3051   001BFC  EF02  F00E         	goto	u1670
  3052   001C00                     u1671:
  3053   001C00  EF07  F00E         	goto	l2928
  3054   001C04                     u1670:
  3055   001C04  500B               	movf	___awdiv@divisor^(0+1280),w,c
  3056   001C06  5E09               	subwf	___awdiv@dividend^(0+1280),f,c
  3057   001C08  500C               	movf	(___awdiv@divisor+1)^(0+1280),w,c
  3058   001C0A  5A0A               	subwfb	(___awdiv@dividend+1)^(0+1280),f,c
  3059   001C0C  800F               	bsf	___awdiv@quotient^(0+1280),0,c
  3060   001C0E                     l2928:
  3061   001C0E  90D8               	bcf	status,0,c
  3062   001C10  320C               	rrcf	(___awdiv@divisor+1)^(0+1280),f,c
  3063   001C12  320B               	rrcf	___awdiv@divisor^(0+1280),f,c
  3064   001C14  2E0D               	decfsz	___awdiv@counter^(0+1280),f,c
  3065   001C16  EFF4  F00D         	goto	l2920
  3066   001C1A                     l2932:
  3067   001C1A  500E               	movf	___awdiv@sign^(0+1280),w,c
  3068   001C1C  B4D8               	btfsc	status,2,c
  3069   001C1E  EF13  F00E         	goto	u1681
  3070   001C22  EF15  F00E         	goto	u1680
  3071   001C26                     u1681:
  3072   001C26  EF19  F00E         	goto	l2936
  3073   001C2A                     u1680:
  3074   001C2A  6C0F               	negf	___awdiv@quotient^(0+1280),c
  3075   001C2C  1E10               	comf	(___awdiv@quotient+1)^(0+1280),f,c
  3076   001C2E  B0D8               	btfsc	status,0,c
  3077   001C30  2A10               	incf	(___awdiv@quotient+1)^(0+1280),f,c
  3078   001C32                     l2936:
  3079   001C32  C50F  F509         	movff	___awdiv@quotient,?___awdiv
  3080   001C36  C510  F50A         	movff	___awdiv@quotient+1,?___awdiv+1
  3081   001C3A  0012               	return		;funcret
  3082   001C3C                     __end_of___awdiv:
  3083                           	callstack 0
  3084                           
  3085 ;; *************** function _Timer0_Write *****************
  3086 ;; Defined at:
  3087 ;;		line 97 in file "mcc_generated_files/timer/src/tmr0.c"
  3088 ;; Parameters:    Size  Location     Type
  3089 ;;  timerVal        2    8[COMRAM] unsigned int 
  3090 ;; Auto vars:     Size  Location     Type
  3091 ;;		None
  3092 ;; Return value:  Size  Location     Type
  3093 ;;                  1    wreg      void 
  3094 ;; Registers used:
  3095 ;;		wreg, status,2
  3096 ;; Tracked objects:
  3097 ;;		On entry : 0/0
  3098 ;;		On exit  : 0/0
  3099 ;;		Unchanged: 0/0
  3100 ;; Data sizes:     COMRAM   BANK5   BANK6   BANK7   BANK8   BANK9  BANK10  BANK11  BANK12  BANK13  BANK14  BANK15  BANK1
      +6  BANK17  BANK18  BANK19  BANK20
  3101 ;;      Params:         2       0       0       0       0       0       0       0       0       0       0       0       
      +0       0       0       0       0
  3102 ;;      Locals:         0       0       0       0       0       0       0       0       0       0       0       0       
      +0       0       0       0       0
  3103 ;;      Temps:          0       0       0       0       0       0       0       0       0       0       0       0       
      +0       0       0       0       0
  3104 ;;      Totals:         2       0       0       0       0       0       0       0       0       0       0       0       
      +0       0       0       0       0
  3105 ;;Total ram usage:        2 bytes
  3106 ;; Hardware stack levels used: 1
  3107 ;; Hardware stack levels required when called: 3
  3108 ;; This function calls:
  3109 ;;		Nothing
  3110 ;; This function is called by:
  3111 ;;		_covert_channel_logic
  3112 ;; This function uses a non-reentrant model
  3113 ;;
  3114                           
  3115                           	psect	text20
  3116   0025B4                     __ptext20:
  3117                           	callstack 0
  3118   0025B4                     _Timer0_Write:
  3119                           	callstack 121
  3120   0025B4                     
  3121                           ;mcc_generated_files/timer/src/tmr0.c: 97: void Timer0_Write(size_t timerVal);mcc_genera
      +                          ted_files/timer/src/tmr0.c: 98: {;mcc_generated_files/timer/src/tmr0.c: 99:     TMR0H = 
      +                          timerVal >> 8;
  3122   0025B4  500A               	movf	(Timer0_Write@timerVal+1)^(0+1280),w,c
  3123   0025B6  0103               	movlb	3	; () banked
  3124   0025B8  6F19               	movwf	25,b	;volatile
  3125   0025BA                     
  3126                           ; BSR set to: 3
  3127                           ;mcc_generated_files/timer/src/tmr0.c: 100:     TMR0L = (uint8_t) timerVal;
  3128   0025BA  C509  F318         	movff	Timer0_Write@timerVal,792	;volatile
  3129   0025BE                     
  3130                           ; BSR set to: 3
  3131   0025BE  0012               	return		;funcret
  3132   0025C0                     __end_of_Timer0_Write:
  3133                           	callstack 0
  3134                           
  3135 ;; *************** function _Timer0_Start *****************
  3136 ;; Defined at:
  3137 ;;		line 74 in file "mcc_generated_files/timer/src/tmr0.c"
  3138 ;; Parameters:    Size  Location     Type
  3139 ;;		None
  3140 ;; Auto vars:     Size  Location     Type
  3141 ;;		None
  3142 ;; Return value:  Size  Location     Type
  3143 ;;                  1    wreg      void 
  3144 ;; Registers used:
  3145 ;;		None
  3146 ;; Tracked objects:
  3147 ;;		On entry : 0/0
  3148 ;;		On exit  : 0/0
  3149 ;;		Unchanged: 0/0
  3150 ;; Data sizes:     COMRAM   BANK5   BANK6   BANK7   BANK8   BANK9  BANK10  BANK11  BANK12  BANK13  BANK14  BANK15  BANK1
      +6  BANK17  BANK18  BANK19  BANK20
  3151 ;;      Params:         0       0       0       0       0       0       0       0       0       0       0       0       
      +0       0       0       0       0
  3152 ;;      Locals:         0       0       0       0       0       0       0       0       0       0       0       0       
      +0       0       0       0       0
  3153 ;;      Temps:          0       0       0       0       0       0       0       0       0       0       0       0       
      +0       0       0       0       0
  3154 ;;      Totals:         0       0       0       0       0       0       0       0       0       0       0       0       
      +0       0       0       0       0
  3155 ;;Total ram usage:        0 bytes
  3156 ;; Hardware stack levels used: 1
  3157 ;; Hardware stack levels required when called: 3
  3158 ;; This function calls:
  3159 ;;		Nothing
  3160 ;; This function is called by:
  3161 ;;		_covert_channel_logic
  3162 ;; This function uses a non-reentrant model
  3163 ;;
  3164                           
  3165                           	psect	text21
  3166   002604                     __ptext21:
  3167                           	callstack 0
  3168   002604                     _Timer0_Start:
  3169                           	callstack 121
  3170   002604                     
  3171                           ;mcc_generated_files/timer/src/tmr0.c: 76:     T0CON0bits.T0EN = 1;
  3172   002604  0103               	movlb	3	; () banked
  3173   002606  8F1A               	bsf	26,7,b	;volatile
  3174   002608                     
  3175                           ; BSR set to: 3
  3176   002608  0012               	return		;funcret
  3177   00260A                     __end_of_Timer0_Start:
  3178                           	callstack 0
  3179                           
  3180 ;; *************** function _DMA1_StartTransfer *****************
  3181 ;; Defined at:
  3182 ;;		line 144 in file "mcc_generated_files/dma/src/dma1.c"
  3183 ;; Parameters:    Size  Location     Type
  3184 ;;		None
  3185 ;; Auto vars:     Size  Location     Type
  3186 ;;		None
  3187 ;; Return value:  Size  Location     Type
  3188 ;;                  1    wreg      void 
  3189 ;; Registers used:
  3190 ;;		wreg, status,2
  3191 ;; Tracked objects:
  3192 ;;		On entry : 0/0
  3193 ;;		On exit  : 0/0
  3194 ;;		Unchanged: 0/0
  3195 ;; Data sizes:     COMRAM   BANK5   BANK6   BANK7   BANK8   BANK9  BANK10  BANK11  BANK12  BANK13  BANK14  BANK15  BANK1
      +6  BANK17  BANK18  BANK19  BANK20
  3196 ;;      Params:         0       0       0       0       0       0       0       0       0       0       0       0       
      +0       0       0       0       0
  3197 ;;      Locals:         0       0       0       0       0       0       0       0       0       0       0       0       
      +0       0       0       0       0
  3198 ;;      Temps:          0       0       0       0       0       0       0       0       0       0       0       0       
      +0       0       0       0       0
  3199 ;;      Totals:         0       0       0       0       0       0       0       0       0       0       0       0       
      +0       0       0       0       0
  3200 ;;Total ram usage:        0 bytes
  3201 ;; Hardware stack levels used: 1
  3202 ;; Hardware stack levels required when called: 3
  3203 ;; This function calls:
  3204 ;;		Nothing
  3205 ;; This function is called by:
  3206 ;;		_covert_channel_logic
  3207 ;;		_covert_channel
  3208 ;; This function uses a non-reentrant model
  3209 ;;
  3210                           
  3211                           	psect	text22
  3212   0025C0                     __ptext22:
  3213                           	callstack 0
  3214   0025C0                     _DMA1_StartTransfer:
  3215                           	callstack 121
  3216   0025C0                     
  3217                           ;mcc_generated_files/dma/src/dma1.c: 146:     DMASELECT = 0x0;
  3218   0025C0  0E00               	movlw	0
  3219   0025C2  0100               	movlb	0	; () banked
  3220   0025C4  6FE8               	movwf	232,b	;volatile
  3221   0025C6                     
  3222                           ; BSR set to: 0
  3223                           ;mcc_generated_files/dma/src/dma1.c: 147:  DMAnCON0bits.DGO = 1;
  3224   0025C6  8BFC               	bsf	252,5,b	;volatile
  3225   0025C8                     
  3226                           ; BSR set to: 0
  3227   0025C8  0012               	return		;funcret
  3228   0025CA                     __end_of_DMA1_StartTransfer:
  3229                           	callstack 0
  3230                           
  3231 ;; *************** function _config_DMA_M2M *****************
  3232 ;; Defined at:
  3233 ;;		line 115 in file "main.c"
  3234 ;; Parameters:    Size  Location     Type
  3235 ;;  size            2    8[COMRAM] unsigned short 
  3236 ;; Auto vars:     Size  Location     Type
  3237 ;;		None
  3238 ;; Return value:  Size  Location     Type
  3239 ;;                  1    wreg      void 
  3240 ;; Registers used:
  3241 ;;		wreg, status,2
  3242 ;; Tracked objects:
  3243 ;;		On entry : 0/0
  3244 ;;		On exit  : 0/0
  3245 ;;		Unchanged: 0/0
  3246 ;; Data sizes:     COMRAM   BANK5   BANK6   BANK7   BANK8   BANK9  BANK10  BANK11  BANK12  BANK13  BANK14  BANK15  BANK1
      +6  BANK17  BANK18  BANK19  BANK20
  3247 ;;      Params:         2       0       0       0       0       0       0       0       0       0       0       0       
      +0       0       0       0       0
  3248 ;;      Locals:         0       0       0       0       0       0       0       0       0       0       0       0       
      +0       0       0       0       0
  3249 ;;      Temps:          0       0       0       0       0       0       0       0       0       0       0       0       
      +0       0       0       0       0
  3250 ;;      Totals:         2       0       0       0       0       0       0       0       0       0       0       0       
      +0       0       0       0       0
  3251 ;;Total ram usage:        2 bytes
  3252 ;; Hardware stack levels used: 1
  3253 ;; Hardware stack levels required when called: 3
  3254 ;; This function calls:
  3255 ;;		Nothing
  3256 ;; This function is called by:
  3257 ;;		_covert_channel
  3258 ;; This function uses a non-reentrant model
  3259 ;;
  3260                           
  3261                           	psect	text23
  3262   002314                     __ptext23:
  3263                           	callstack 0
  3264   002314                     _config_DMA_M2M:
  3265                           	callstack 122
  3266   002314                     
  3267                           ;main.c: 118:   DMAnCON0 = 0x00;
  3268   002314  0E00               	movlw	0
  3269   002316  0100               	movlb	0	; () banked
  3270   002318  6FFC               	movwf	252,b	;volatile
  3271                           
  3272                           ;main.c: 119:   DMASELECT = 0x0;
  3273   00231A  0E00               	movlw	0
  3274   00231C  6FE8               	movwf	232,b	;volatile
  3275                           
  3276                           ;main.c: 120:   DMAnSSA = 0x650;
  3277   00231E  0E50               	movlw	80
  3278   002320  6FF9               	movwf	249,b	;volatile
  3279   002322  0E06               	movlw	6
  3280   002324  6FFA               	movwf	250,b	;volatile
  3281   002326  0E00               	movlw	0
  3282   002328  6FFB               	movwf	251,b	;volatile
  3283                           
  3284                           ;main.c: 121:   DMAnDSA = 0x651;
  3285   00232A  0E06               	movlw	6
  3286   00232C  6FF1               	movwf	241,b	;volatile
  3287   00232E  0E51               	movlw	81
  3288   002330  6FF0               	movwf	240,b	;volatile
  3289   002332                     
  3290                           ; BSR set to: 0
  3291                           ;main.c: 122:   DMAnSSZ= size;
  3292   002332  C509  F0F7         	movff	config_DMA_M2M@size,247	;volatile
  3293   002336  C50A  F0F8         	movff	config_DMA_M2M@size+1,248	;volatile
  3294   00233A                     
  3295                           ; BSR set to: 0
  3296                           ;main.c: 123:   DMAnDSZ= size;
  3297   00233A  C509  F0EE         	movff	config_DMA_M2M@size,238	;volatile
  3298   00233E  C50A  F0EF         	movff	config_DMA_M2M@size+1,239	;volatile
  3299                           
  3300                           ;main.c: 124:   DMAnCON0 = 0x80;
  3301   002342  0E80               	movlw	128
  3302   002344  6FFC               	movwf	252,b	;volatile
  3303   002346                     
  3304                           ; BSR set to: 0
  3305   002346  0012               	return		;funcret
  3306   002348                     __end_of_config_DMA_M2M:
  3307                           	callstack 0
  3308                           
  3309 ;; *************** function _SYSTEM_Initialize *****************
  3310 ;; Defined at:
  3311 ;;		line 45 in file "mcc_generated_files/system/src/system.c"
  3312 ;; Parameters:    Size  Location     Type
  3313 ;;		None
  3314 ;; Auto vars:     Size  Location     Type
  3315 ;;		None
  3316 ;; Return value:  Size  Location     Type
  3317 ;;                  1    wreg      void 
  3318 ;; Registers used:
  3319 ;;		wreg, status,2, status,0, cstack
  3320 ;; Tracked objects:
  3321 ;;		On entry : 0/0
  3322 ;;		On exit  : 0/0
  3323 ;;		Unchanged: 0/0
  3324 ;; Data sizes:     COMRAM   BANK5   BANK6   BANK7   BANK8   BANK9  BANK10  BANK11  BANK12  BANK13  BANK14  BANK15  BANK1
      +6  BANK17  BANK18  BANK19  BANK20
  3325 ;;      Params:         0       0       0       0       0       0       0       0       0       0       0       0       
      +0       0       0       0       0
  3326 ;;      Locals:         0       0       0       0       0       0       0       0       0       0       0       0       
      +0       0       0       0       0
  3327 ;;      Temps:          0       0       0       0       0       0       0       0       0       0       0       0       
      +0       0       0       0       0
  3328 ;;      Totals:         0       0       0       0       0       0       0       0       0       0       0       0       
      +0       0       0       0       0
  3329 ;;Total ram usage:        0 bytes
  3330 ;; Hardware stack levels used: 1
  3331 ;; Hardware stack levels required when called: 5
  3332 ;; This function calls:
  3333 ;;		_CLOCK_Initialize
  3334 ;;		_CPU_Initialize
  3335 ;;		_DMA1_Initialize
  3336 ;;		_INTERRUPT_Initialize
  3337 ;;		_PIN_MANAGER_Initialize
  3338 ;;		_SystemArbiter_Initialize
  3339 ;;		_Timer0_Initialize
  3340 ;;		_UART1_Initialize
  3341 ;;		_UART2_Initialize
  3342 ;; This function is called by:
  3343 ;;		_main
  3344 ;; This function uses a non-reentrant model
  3345 ;;
  3346                           
  3347                           	psect	text24
  3348   002480                     __ptext24:
  3349                           	callstack 0
  3350   002480                     _SYSTEM_Initialize:
  3351                           	callstack 121
  3352   002480                     
  3353                           ;mcc_generated_files/system/src/system.c: 47:     CLOCK_Initialize();
  3354   002480  EC9A  F012         	call	_CLOCK_Initialize	;wreg free
  3355                           
  3356                           ;mcc_generated_files/system/src/system.c: 48:     PIN_MANAGER_Initialize();
  3357   002484  ECCB  F00E         	call	_PIN_MANAGER_Initialize	;wreg free
  3358                           
  3359                           ;mcc_generated_files/system/src/system.c: 49:     CPU_Initialize();
  3360   002488  EC01  F012         	call	_CPU_Initialize	;wreg free
  3361   00248C                     
  3362                           ;mcc_generated_files/system/src/system.c: 50:     DMA1_Initialize();
  3363   00248C  EC6C  F010         	call	_DMA1_Initialize	;wreg free
  3364   002490                     
  3365                           ;mcc_generated_files/system/src/system.c: 51:     Timer0_Initialize();
  3366   002490  ECA4  F011         	call	_Timer0_Initialize	;wreg free
  3367   002494                     
  3368                           ;mcc_generated_files/system/src/system.c: 52:     UART1_Initialize();
  3369   002494  EC13  F00F         	call	_UART1_Initialize	;wreg free
  3370   002498                     
  3371                           ;mcc_generated_files/system/src/system.c: 53:     UART2_Initialize();
  3372   002498  EC6E  F011         	call	_UART2_Initialize	;wreg free
  3373                           
  3374                           ;mcc_generated_files/system/src/system.c: 54:     INTERRUPT_Initialize();
  3375   00249C  EC02  F010         	call	_INTERRUPT_Initialize	;wreg free
  3376   0024A0                     
  3377                           ;mcc_generated_files/system/src/system.c: 55:     SystemArbiter_Initialize();
  3378   0024A0  ECCC  F012         	call	_SystemArbiter_Initialize	;wreg free
  3379   0024A4  0012               	return		;funcret
  3380   0024A6                     __end_of_SYSTEM_Initialize:
  3381                           	callstack 0
  3382                           
  3383 ;; *************** function _UART2_Initialize *****************
  3384 ;; Defined at:
  3385 ;;		line 26 in file "mcc_generated_files/peripheral/src/uart2.c"
  3386 ;; Parameters:    Size  Location     Type
  3387 ;;		None
  3388 ;; Auto vars:     Size  Location     Type
  3389 ;;		None
  3390 ;; Return value:  Size  Location     Type
  3391 ;;                  1    wreg      void 
  3392 ;; Registers used:
  3393 ;;		wreg, status,2
  3394 ;; Tracked objects:
  3395 ;;		On entry : 0/0
  3396 ;;		On exit  : 0/0
  3397 ;;		Unchanged: 0/0
  3398 ;; Data sizes:     COMRAM   BANK5   BANK6   BANK7   BANK8   BANK9  BANK10  BANK11  BANK12  BANK13  BANK14  BANK15  BANK1
      +6  BANK17  BANK18  BANK19  BANK20
  3399 ;;      Params:         0       0       0       0       0       0       0       0       0       0       0       0       
      +0       0       0       0       0
  3400 ;;      Locals:         0       0       0       0       0       0       0       0       0       0       0       0       
      +0       0       0       0       0
  3401 ;;      Temps:          0       0       0       0       0       0       0       0       0       0       0       0       
      +0       0       0       0       0
  3402 ;;      Totals:         0       0       0       0       0       0       0       0       0       0       0       0       
      +0       0       0       0       0
  3403 ;;Total ram usage:        0 bytes
  3404 ;; Hardware stack levels used: 1
  3405 ;; Hardware stack levels required when called: 3
  3406 ;; This function calls:
  3407 ;;		Nothing
  3408 ;; This function is called by:
  3409 ;;		_SYSTEM_Initialize
  3410 ;; This function uses a non-reentrant model
  3411 ;;
  3412                           
  3413                           	psect	text25
  3414   0022DC                     __ptext25:
  3415                           	callstack 0
  3416   0022DC                     _UART2_Initialize:
  3417                           	callstack 122
  3418   0022DC                     
  3419                           ;mcc_generated_files/peripheral/src/uart2.c: 28:     U2TXB = 0x0;
  3420   0022DC  0E00               	movlw	0
  3421   0022DE  0102               	movlb	2	; () banked
  3422   0022E0  6FB6               	movwf	182,b	;volatile
  3423                           
  3424                           ;mcc_generated_files/peripheral/src/uart2.c: 30:     U2P1L = 0x0;
  3425   0022E2  0E00               	movlw	0
  3426   0022E4  6FB8               	movwf	184,b	;volatile
  3427                           
  3428                           ;mcc_generated_files/peripheral/src/uart2.c: 32:     U2P2L = 0x0;
  3429   0022E6  0E00               	movlw	0
  3430   0022E8  6FBA               	movwf	186,b	;volatile
  3431                           
  3432                           ;mcc_generated_files/peripheral/src/uart2.c: 34:     U2P3L = 0x0;
  3433   0022EA  0E00               	movlw	0
  3434   0022EC  6FBC               	movwf	188,b	;volatile
  3435                           
  3436                           ;mcc_generated_files/peripheral/src/uart2.c: 36:     U2CON0 = 0x0;
  3437   0022EE  0E00               	movlw	0
  3438   0022F0  6FBE               	movwf	190,b	;volatile
  3439                           
  3440                           ;mcc_generated_files/peripheral/src/uart2.c: 38:     U2CON1 = 0x0;
  3441   0022F2  0E00               	movlw	0
  3442   0022F4  6FBF               	movwf	191,b	;volatile
  3443                           
  3444                           ;mcc_generated_files/peripheral/src/uart2.c: 40:     U2CON2 = 0x0;
  3445   0022F6  0E00               	movlw	0
  3446   0022F8  6FC0               	movwf	192,b	;volatile
  3447                           
  3448                           ;mcc_generated_files/peripheral/src/uart2.c: 42:     U2BRGL = 0x0;
  3449   0022FA  0E00               	movlw	0
  3450   0022FC  6FC1               	movwf	193,b	;volatile
  3451                           
  3452                           ;mcc_generated_files/peripheral/src/uart2.c: 44:     U2BRGH = 0x0;
  3453   0022FE  0E00               	movlw	0
  3454   002300  6FC2               	movwf	194,b	;volatile
  3455                           
  3456                           ;mcc_generated_files/peripheral/src/uart2.c: 46:     U2FIFO = 0x20;
  3457   002302  0E20               	movlw	32
  3458   002304  6FC3               	movwf	195,b	;volatile
  3459                           
  3460                           ;mcc_generated_files/peripheral/src/uart2.c: 48:     U2UIR = 0x0;
  3461   002306  0E00               	movlw	0
  3462   002308  6FC4               	movwf	196,b	;volatile
  3463                           
  3464                           ;mcc_generated_files/peripheral/src/uart2.c: 50:     U2ERRIR = 0x80;
  3465   00230A  0E80               	movlw	128
  3466   00230C  6FC5               	movwf	197,b	;volatile
  3467                           
  3468                           ;mcc_generated_files/peripheral/src/uart2.c: 52:     U2ERRIE = 0x0;
  3469   00230E  0E00               	movlw	0
  3470   002310  6FC6               	movwf	198,b	;volatile
  3471   002312                     
  3472                           ; BSR set to: 2
  3473   002312  0012               	return		;funcret
  3474   002314                     __end_of_UART2_Initialize:
  3475                           	callstack 0
  3476                           
  3477 ;; *************** function _UART1_Initialize *****************
  3478 ;; Defined at:
  3479 ;;		line 95 in file "mcc_generated_files/uart/src/uart1.c"
  3480 ;; Parameters:    Size  Location     Type
  3481 ;;		None
  3482 ;; Auto vars:     Size  Location     Type
  3483 ;;		None
  3484 ;; Return value:  Size  Location     Type
  3485 ;;                  1    wreg      void 
  3486 ;; Registers used:
  3487 ;;		wreg, status,2, status,0, cstack
  3488 ;; Tracked objects:
  3489 ;;		On entry : 0/0
  3490 ;;		On exit  : 0/0
  3491 ;;		Unchanged: 0/0
  3492 ;; Data sizes:     COMRAM   BANK5   BANK6   BANK7   BANK8   BANK9  BANK10  BANK11  BANK12  BANK13  BANK14  BANK15  BANK1
      +6  BANK17  BANK18  BANK19  BANK20
  3493 ;;      Params:         0       0       0       0       0       0       0       0       0       0       0       0       
      +0       0       0       0       0
  3494 ;;      Locals:         0       0       0       0       0       0       0       0       0       0       0       0       
      +0       0       0       0       0
  3495 ;;      Temps:          0       0       0       0       0       0       0       0       0       0       0       0       
      +0       0       0       0       0
  3496 ;;      Totals:         0       0       0       0       0       0       0       0       0       0       0       0       
      +0       0       0       0       0
  3497 ;;Total ram usage:        0 bytes
  3498 ;; Hardware stack levels used: 1
  3499 ;; Hardware stack levels required when called: 4
  3500 ;; This function calls:
  3501 ;;		_UART1_FramingErrorCallbackRegister
  3502 ;;		_UART1_OverrunErrorCallbackRegister
  3503 ;;		_UART1_ParityErrorCallbackRegister
  3504 ;; This function is called by:
  3505 ;;		_SYSTEM_Initialize
  3506 ;; This function uses a non-reentrant model
  3507 ;;
  3508                           
  3509                           	psect	text26
  3510   001E26                     __ptext26:
  3511                           	callstack 0
  3512   001E26                     _UART1_Initialize:
  3513                           	callstack 121
  3514   001E26                     
  3515                           ;mcc_generated_files/uart/src/uart1.c: 101:     U1RXB = 0x0;
  3516   001E26  0E00               	movlw	0
  3517   001E28  0102               	movlb	2	; () banked
  3518   001E2A  6FA1               	movwf	161,b	;volatile
  3519                           
  3520                           ;mcc_generated_files/uart/src/uart1.c: 103:     U1RXCHK = 0x0;
  3521   001E2C  0E00               	movlw	0
  3522   001E2E  6FA2               	movwf	162,b	;volatile
  3523                           
  3524                           ;mcc_generated_files/uart/src/uart1.c: 105:     U1TXB = 0x0;
  3525   001E30  0E00               	movlw	0
  3526   001E32  6FA3               	movwf	163,b	;volatile
  3527                           
  3528                           ;mcc_generated_files/uart/src/uart1.c: 107:     U1TXCHK = 0x0;
  3529   001E34  0E00               	movlw	0
  3530   001E36  6FA4               	movwf	164,b	;volatile
  3531                           
  3532                           ;mcc_generated_files/uart/src/uart1.c: 109:     U1P1L = 0x0;
  3533   001E38  0E00               	movlw	0
  3534   001E3A  6FA5               	movwf	165,b	;volatile
  3535                           
  3536                           ;mcc_generated_files/uart/src/uart1.c: 111:     U1P1H = 0x0;
  3537   001E3C  0E00               	movlw	0
  3538   001E3E  6FA6               	movwf	166,b	;volatile
  3539                           
  3540                           ;mcc_generated_files/uart/src/uart1.c: 113:     U1P2L = 0x0;
  3541   001E40  0E00               	movlw	0
  3542   001E42  6FA7               	movwf	167,b	;volatile
  3543                           
  3544                           ;mcc_generated_files/uart/src/uart1.c: 115:     U1P2H = 0x0;
  3545   001E44  0E00               	movlw	0
  3546   001E46  6FA8               	movwf	168,b	;volatile
  3547                           
  3548                           ;mcc_generated_files/uart/src/uart1.c: 117:     U1P3L = 0x0;
  3549   001E48  0E00               	movlw	0
  3550   001E4A  6FA9               	movwf	169,b	;volatile
  3551                           
  3552                           ;mcc_generated_files/uart/src/uart1.c: 119:     U1P3H = 0x0;
  3553   001E4C  0E00               	movlw	0
  3554   001E4E  6FAA               	movwf	170,b	;volatile
  3555                           
  3556                           ;mcc_generated_files/uart/src/uart1.c: 121:     U1CON0 = 0xB0;
  3557   001E50  0EB0               	movlw	176
  3558   001E52  6FAB               	movwf	171,b	;volatile
  3559                           
  3560                           ;mcc_generated_files/uart/src/uart1.c: 123:     U1CON1 = 0x80;
  3561   001E54  0E80               	movlw	128
  3562   001E56  6FAC               	movwf	172,b	;volatile
  3563                           
  3564                           ;mcc_generated_files/uart/src/uart1.c: 125:     U1CON2 = 0x8;
  3565   001E58  0E08               	movlw	8
  3566   001E5A  6FAD               	movwf	173,b	;volatile
  3567                           
  3568                           ;mcc_generated_files/uart/src/uart1.c: 127:     U1BRGL = 0x40;
  3569   001E5C  0E40               	movlw	64
  3570   001E5E  6FAE               	movwf	174,b	;volatile
  3571                           
  3572                           ;mcc_generated_files/uart/src/uart1.c: 129:     U1BRGH = 0x3;
  3573   001E60  0E03               	movlw	3
  3574   001E62  6FAF               	movwf	175,b	;volatile
  3575                           
  3576                           ;mcc_generated_files/uart/src/uart1.c: 131:     U1FIFO = 0x20;
  3577   001E64  0E20               	movlw	32
  3578   001E66  6FB0               	movwf	176,b	;volatile
  3579                           
  3580                           ;mcc_generated_files/uart/src/uart1.c: 133:     U1UIR = 0x0;
  3581   001E68  0E00               	movlw	0
  3582   001E6A  6FB1               	movwf	177,b	;volatile
  3583                           
  3584                           ;mcc_generated_files/uart/src/uart1.c: 135:     U1ERRIR = 0x80;
  3585   001E6C  0E80               	movlw	128
  3586   001E6E  6FB2               	movwf	178,b	;volatile
  3587                           
  3588                           ;mcc_generated_files/uart/src/uart1.c: 137:     U1ERRIE = 0x0;
  3589   001E70  0E00               	movlw	0
  3590   001E72  6FB3               	movwf	179,b	;volatile
  3591   001E74                     
  3592                           ; BSR set to: 2
  3593                           ;mcc_generated_files/uart/src/uart1.c: 139:     UART1_FramingErrorCallbackRegister(UART1
      +                          _DefaultFramingErrorCallback);
  3594   001E74  0E00               	movlw	0
  3595   001E76  6E09               	movwf	UART1_FramingErrorCallbackRegister@callbackHandler^(0+1280),c
  3596   001E78  0E00               	movlw	0
  3597   001E7A  6E0A               	movwf	(UART1_FramingErrorCallbackRegister@callbackHandler+1)^(0+1280),c
  3598   001E7C  EC8C  F012         	call	_UART1_FramingErrorCallbackRegister	;wreg free
  3599   001E80                     
  3600                           ;mcc_generated_files/uart/src/uart1.c: 140:     UART1_OverrunErrorCallbackRegister(UART1
      +                          _DefaultOverrunErrorCallback);
  3601   001E80  0E00               	movlw	0
  3602   001E82  6E09               	movwf	UART1_OverrunErrorCallbackRegister@callbackHandler^(0+1280),c
  3603   001E84  0E00               	movlw	0
  3604   001E86  6E0A               	movwf	(UART1_OverrunErrorCallbackRegister@callbackHandler+1)^(0+1280),c
  3605   001E88  EC7E  F012         	call	_UART1_OverrunErrorCallbackRegister	;wreg free
  3606   001E8C                     
  3607                           ;mcc_generated_files/uart/src/uart1.c: 141:     UART1_ParityErrorCallbackRegister(UART1_
      +                          DefaultParityErrorCallback);
  3608   001E8C  0E00               	movlw	0
  3609   001E8E  6E09               	movwf	UART1_ParityErrorCallbackRegister@callbackHandler^(0+1280),c
  3610   001E90  0E00               	movlw	0
  3611   001E92  6E0A               	movwf	(UART1_ParityErrorCallbackRegister@callbackHandler+1)^(0+1280),c
  3612   001E94  EC70  F012         	call	_UART1_ParityErrorCallbackRegister	;wreg free
  3613   001E98                     
  3614                           ;mcc_generated_files/uart/src/uart1.c: 143:     uart1RxLastError.status = 0;
  3615   001E98  0E00               	movlw	0
  3616   001E9A  0105               	movlb	5	; () banked
  3617   001E9C  6F6D               	movwf	(_uart1RxLastError+1)& (0+255),b	;volatile
  3618   001E9E  0E00               	movlw	0
  3619   001EA0  6F6C               	movwf	_uart1RxLastError& (0+255),b	;volatile
  3620   001EA2                     
  3621                           ; BSR set to: 5
  3622   001EA2  0012               	return		;funcret
  3623   001EA4                     __end_of_UART1_Initialize:
  3624                           	callstack 0
  3625                           
  3626 ;; *************** function _UART1_ParityErrorCallbackRegister *****************
  3627 ;; Defined at:
  3628 ;;		line 340 in file "mcc_generated_files/uart/src/uart1.c"
  3629 ;; Parameters:    Size  Location     Type
  3630 ;;  callbackHand    2    8[COMRAM] PTR FTN()void 
  3631 ;;		 -> UART1_DefaultParityErrorCallback(1), 
  3632 ;; Auto vars:     Size  Location     Type
  3633 ;;		None
  3634 ;; Return value:  Size  Location     Type
  3635 ;;                  1    wreg      void 
  3636 ;; Registers used:
  3637 ;;		wreg, status,2, status,0
  3638 ;; Tracked objects:
  3639 ;;		On entry : 0/0
  3640 ;;		On exit  : 0/0
  3641 ;;		Unchanged: 0/0
  3642 ;; Data sizes:     COMRAM   BANK5   BANK6   BANK7   BANK8   BANK9  BANK10  BANK11  BANK12  BANK13  BANK14  BANK15  BANK1
      +6  BANK17  BANK18  BANK19  BANK20
  3643 ;;      Params:         2       0       0       0       0       0       0       0       0       0       0       0       
      +0       0       0       0       0
  3644 ;;      Locals:         0       0       0       0       0       0       0       0       0       0       0       0       
      +0       0       0       0       0
  3645 ;;      Temps:          0       0       0       0       0       0       0       0       0       0       0       0       
      +0       0       0       0       0
  3646 ;;      Totals:         2       0       0       0       0       0       0       0       0       0       0       0       
      +0       0       0       0       0
  3647 ;;Total ram usage:        2 bytes
  3648 ;; Hardware stack levels used: 1
  3649 ;; Hardware stack levels required when called: 3
  3650 ;; This function calls:
  3651 ;;		Nothing
  3652 ;; This function is called by:
  3653 ;;		_UART1_Initialize
  3654 ;; This function uses a non-reentrant model
  3655 ;;
  3656                           
  3657                           	psect	text27
  3658   0024E0                     __ptext27:
  3659                           	callstack 0
  3660   0024E0                     _UART1_ParityErrorCallbackRegister:
  3661                           	callstack 121
  3662   0024E0                     
  3663                           ;mcc_generated_files/uart/src/uart1.c: 340: void UART1_ParityErrorCallbackRegister(void 
      +                          (* callbackHandler)(void));mcc_generated_files/uart/src/uart1.c: 341: {;mcc_generated_fi
      +                          les/uart/src/uart1.c: 342:     if(((void*)0) != callbackHandler)
  3664   0024E0  5009               	movf	UART1_ParityErrorCallbackRegister@callbackHandler^(0+1280),w,c
  3665   0024E2  100A               	iorwf	(UART1_ParityErrorCallbackRegister@callbackHandler+1)^(0+1280),w,c
  3666   0024E4  B4D8               	btfsc	status,2,c
  3667   0024E6  EF77  F012         	goto	u1331
  3668   0024EA  EF79  F012         	goto	u1330
  3669   0024EE                     u1331:
  3670   0024EE  EF7D  F012         	goto	l377
  3671   0024F2                     u1330:
  3672   0024F2                     
  3673                           ;mcc_generated_files/uart/src/uart1.c: 343:     {;mcc_generated_files/uart/src/uart1.c: 
      +                          344:         UART1_ParityErrorHandler = callbackHandler;
  3674   0024F2  C509  F568         	movff	UART1_ParityErrorCallbackRegister@callbackHandler,_UART1_ParityErrorHandler
  3675   0024F6  C50A  F569         	movff	UART1_ParityErrorCallbackRegister@callbackHandler+1,_UART1_ParityErrorHandler+1
  3676   0024FA                     l377:
  3677   0024FA  0012               	return		;funcret
  3678   0024FC                     __end_of_UART1_ParityErrorCallbackRegister:
  3679                           	callstack 0
  3680                           
  3681 ;; *************** function _UART1_OverrunErrorCallbackRegister *****************
  3682 ;; Defined at:
  3683 ;;		line 332 in file "mcc_generated_files/uart/src/uart1.c"
  3684 ;; Parameters:    Size  Location     Type
  3685 ;;  callbackHand    2    8[COMRAM] PTR FTN()void 
  3686 ;;		 -> UART1_DefaultOverrunErrorCallback(1), 
  3687 ;; Auto vars:     Size  Location     Type
  3688 ;;		None
  3689 ;; Return value:  Size  Location     Type
  3690 ;;                  1    wreg      void 
  3691 ;; Registers used:
  3692 ;;		wreg, status,2, status,0
  3693 ;; Tracked objects:
  3694 ;;		On entry : 0/0
  3695 ;;		On exit  : 0/0
  3696 ;;		Unchanged: 0/0
  3697 ;; Data sizes:     COMRAM   BANK5   BANK6   BANK7   BANK8   BANK9  BANK10  BANK11  BANK12  BANK13  BANK14  BANK15  BANK1
      +6  BANK17  BANK18  BANK19  BANK20
  3698 ;;      Params:         2       0       0       0       0       0       0       0       0       0       0       0       
      +0       0       0       0       0
  3699 ;;      Locals:         0       0       0       0       0       0       0       0       0       0       0       0       
      +0       0       0       0       0
  3700 ;;      Temps:          0       0       0       0       0       0       0       0       0       0       0       0       
      +0       0       0       0       0
  3701 ;;      Totals:         2       0       0       0       0       0       0       0       0       0       0       0       
      +0       0       0       0       0
  3702 ;;Total ram usage:        2 bytes
  3703 ;; Hardware stack levels used: 1
  3704 ;; Hardware stack levels required when called: 3
  3705 ;; This function calls:
  3706 ;;		Nothing
  3707 ;; This function is called by:
  3708 ;;		_UART1_Initialize
  3709 ;; This function uses a non-reentrant model
  3710 ;;
  3711                           
  3712                           	psect	text28
  3713   0024FC                     __ptext28:
  3714                           	callstack 0
  3715   0024FC                     _UART1_OverrunErrorCallbackRegister:
  3716                           	callstack 121
  3717   0024FC                     
  3718                           ;mcc_generated_files/uart/src/uart1.c: 332: void UART1_OverrunErrorCallbackRegister(void
      +                           (* callbackHandler)(void));mcc_generated_files/uart/src/uart1.c: 333: {;mcc_generated_f
      +                          iles/uart/src/uart1.c: 334:     if(((void*)0) != callbackHandler)
  3719   0024FC  5009               	movf	UART1_OverrunErrorCallbackRegister@callbackHandler^(0+1280),w,c
  3720   0024FE  100A               	iorwf	(UART1_OverrunErrorCallbackRegister@callbackHandler+1)^(0+1280),w,c
  3721   002500  B4D8               	btfsc	status,2,c
  3722   002502  EF85  F012         	goto	u1321
  3723   002506  EF87  F012         	goto	u1320
  3724   00250A                     u1321:
  3725   00250A  EF8B  F012         	goto	l373
  3726   00250E                     u1320:
  3727   00250E                     
  3728                           ;mcc_generated_files/uart/src/uart1.c: 335:     {;mcc_generated_files/uart/src/uart1.c: 
      +                          336:         UART1_OverrunErrorHandler = callbackHandler;
  3729   00250E  C509  F56A         	movff	UART1_OverrunErrorCallbackRegister@callbackHandler,_UART1_OverrunErrorHandler
  3730   002512  C50A  F56B         	movff	UART1_OverrunErrorCallbackRegister@callbackHandler+1,_UART1_OverrunErrorHandler+1
  3731   002516                     l373:
  3732   002516  0012               	return		;funcret
  3733   002518                     __end_of_UART1_OverrunErrorCallbackRegister:
  3734                           	callstack 0
  3735                           
  3736 ;; *************** function _UART1_FramingErrorCallbackRegister *****************
  3737 ;; Defined at:
  3738 ;;		line 324 in file "mcc_generated_files/uart/src/uart1.c"
  3739 ;; Parameters:    Size  Location     Type
  3740 ;;  callbackHand    2    8[COMRAM] PTR FTN()void 
  3741 ;;		 -> UART1_DefaultFramingErrorCallback(1), 
  3742 ;; Auto vars:     Size  Location     Type
  3743 ;;		None
  3744 ;; Return value:  Size  Location     Type
  3745 ;;                  1    wreg      void 
  3746 ;; Registers used:
  3747 ;;		wreg, status,2, status,0
  3748 ;; Tracked objects:
  3749 ;;		On entry : 0/0
  3750 ;;		On exit  : 0/0
  3751 ;;		Unchanged: 0/0
  3752 ;; Data sizes:     COMRAM   BANK5   BANK6   BANK7   BANK8   BANK9  BANK10  BANK11  BANK12  BANK13  BANK14  BANK15  BANK1
      +6  BANK17  BANK18  BANK19  BANK20
  3753 ;;      Params:         2       0       0       0       0       0       0       0       0       0       0       0       
      +0       0       0       0       0
  3754 ;;      Locals:         0       0       0       0       0       0       0       0       0       0       0       0       
      +0       0       0       0       0
  3755 ;;      Temps:          0       0       0       0       0       0       0       0       0       0       0       0       
      +0       0       0       0       0
  3756 ;;      Totals:         2       0       0       0       0       0       0       0       0       0       0       0       
      +0       0       0       0       0
  3757 ;;Total ram usage:        2 bytes
  3758 ;; Hardware stack levels used: 1
  3759 ;; Hardware stack levels required when called: 3
  3760 ;; This function calls:
  3761 ;;		Nothing
  3762 ;; This function is called by:
  3763 ;;		_UART1_Initialize
  3764 ;; This function uses a non-reentrant model
  3765 ;;
  3766                           
  3767                           	psect	text29
  3768   002518                     __ptext29:
  3769                           	callstack 0
  3770   002518                     _UART1_FramingErrorCallbackRegister:
  3771                           	callstack 121
  3772   002518                     
  3773                           ;mcc_generated_files/uart/src/uart1.c: 324: void UART1_FramingErrorCallbackRegister(void
      +                           (* callbackHandler)(void));mcc_generated_files/uart/src/uart1.c: 325: {;mcc_generated_f
      +                          iles/uart/src/uart1.c: 326:     if(((void*)0) != callbackHandler)
  3774   002518  5009               	movf	UART1_FramingErrorCallbackRegister@callbackHandler^(0+1280),w,c
  3775   00251A  100A               	iorwf	(UART1_FramingErrorCallbackRegister@callbackHandler+1)^(0+1280),w,c
  3776   00251C  B4D8               	btfsc	status,2,c
  3777   00251E  EF93  F012         	goto	u1311
  3778   002522  EF95  F012         	goto	u1310
  3779   002526                     u1311:
  3780   002526  EF99  F012         	goto	l369
  3781   00252A                     u1310:
  3782   00252A                     
  3783                           ;mcc_generated_files/uart/src/uart1.c: 327:     {;mcc_generated_files/uart/src/uart1.c: 
      +                          328:         UART1_FramingErrorHandler = callbackHandler;
  3784   00252A  C509  F54D         	movff	UART1_FramingErrorCallbackRegister@callbackHandler,_UART1_FramingErrorHandler
  3785   00252E  C50A  F54E         	movff	UART1_FramingErrorCallbackRegister@callbackHandler+1,_UART1_FramingErrorHandler+1
  3786   002532                     l369:
  3787   002532  0012               	return		;funcret
  3788   002534                     __end_of_UART1_FramingErrorCallbackRegister:
  3789                           	callstack 0
  3790                           
  3791 ;; *************** function _Timer0_Initialize *****************
  3792 ;; Defined at:
  3793 ;;		line 50 in file "mcc_generated_files/timer/src/tmr0.c"
  3794 ;; Parameters:    Size  Location     Type
  3795 ;;		None
  3796 ;; Auto vars:     Size  Location     Type
  3797 ;;		None
  3798 ;; Return value:  Size  Location     Type
  3799 ;;                  1    wreg      void 
  3800 ;; Registers used:
  3801 ;;		wreg, status,2, status,0, cstack
  3802 ;; Tracked objects:
  3803 ;;		On entry : 0/0
  3804 ;;		On exit  : 0/0
  3805 ;;		Unchanged: 0/0
  3806 ;; Data sizes:     COMRAM   BANK5   BANK6   BANK7   BANK8   BANK9  BANK10  BANK11  BANK12  BANK13  BANK14  BANK15  BANK1
      +6  BANK17  BANK18  BANK19  BANK20
  3807 ;;      Params:         0       0       0       0       0       0       0       0       0       0       0       0       
      +0       0       0       0       0
  3808 ;;      Locals:         0       0       0       0       0       0       0       0       0       0       0       0       
      +0       0       0       0       0
  3809 ;;      Temps:          2       0       0       0       0       0       0       0       0       0       0       0       
      +0       0       0       0       0
  3810 ;;      Totals:         2       0       0       0       0       0       0       0       0       0       0       0       
      +0       0       0       0       0
  3811 ;;Total ram usage:        2 bytes
  3812 ;; Hardware stack levels used: 1
  3813 ;; Hardware stack levels required when called: 4
  3814 ;; This function calls:
  3815 ;;		_Timer0_OverflowCallbackRegister
  3816 ;; This function is called by:
  3817 ;;		_SYSTEM_Initialize
  3818 ;; This function uses a non-reentrant model
  3819 ;;
  3820                           
  3821                           	psect	text30
  3822   002348                     __ptext30:
  3823                           	callstack 0
  3824   002348                     _Timer0_Initialize:
  3825                           	callstack 121
  3826   002348                     
  3827                           ;mcc_generated_files/timer/src/tmr0.c: 53:     TMR0H = 0x0;
  3828   002348  0E00               	movlw	0
  3829   00234A  0103               	movlb	3	; () banked
  3830   00234C  6F19               	movwf	25,b	;volatile
  3831                           
  3832                           ;mcc_generated_files/timer/src/tmr0.c: 56:     TMR0L = 0x0;
  3833   00234E  0E00               	movlw	0
  3834   002350  6F18               	movwf	24,b	;volatile
  3835                           
  3836                           ;mcc_generated_files/timer/src/tmr0.c: 59:     T0CON1 = 0x70;
  3837   002352  0E70               	movlw	112
  3838   002354  6F1B               	movwf	27,b	;volatile
  3839                           
  3840                           ;mcc_generated_files/timer/src/tmr0.c: 62:     timerTMR0ReloadVal16bit = ((uint16_t)TMR0
      +                          H << 8) | TMR0L;
  3841   002356  5119               	movf	25,w,b	;volatile
  3842   002358  6E0B               	movwf	??_Timer0_Initialize^(0+1280),c
  3843   00235A  5118               	movf	24,w,b	;volatile
  3844   00235C  6E4B               	movwf	_timerTMR0ReloadVal16bit^(0+1280),c	;volatile
  3845   00235E  C50B  F54C         	movff	??_Timer0_Initialize,_timerTMR0ReloadVal16bit+1	;volatile
  3846   002362                     
  3847                           ; BSR set to: 3
  3848                           ;mcc_generated_files/timer/src/tmr0.c: 65:     Timer0_OverflowCallbackRegister(Timer0_De
      +                          faultOverflowCallback);
  3849   002362  0E00               	movlw	0
  3850   002364  6E09               	movwf	Timer0_OverflowCallbackRegister@CallbackHandler^(0+1280),c
  3851   002366  0E00               	movlw	0
  3852   002368  6E0A               	movwf	(Timer0_OverflowCallbackRegister@CallbackHandler+1)^(0+1280),c
  3853   00236A  ECE5  F012         	call	_Timer0_OverflowCallbackRegister	;wreg free
  3854   00236E                     
  3855                           ;mcc_generated_files/timer/src/tmr0.c: 68:     PIR3bits.TMR0IF = 0;
  3856   00236E  9EB6               	bcf	182,7,c	;volatile
  3857   002370                     
  3858                           ;mcc_generated_files/timer/src/tmr0.c: 71:     T0CON0 = 0x90;
  3859   002370  0E90               	movlw	144
  3860   002372  0103               	movlb	3	; () banked
  3861   002374  6F1A               	movwf	26,b	;volatile
  3862   002376                     
  3863                           ; BSR set to: 3
  3864   002376  0012               	return		;funcret
  3865   002378                     __end_of_Timer0_Initialize:
  3866                           	callstack 0
  3867                           
  3868 ;; *************** function _Timer0_OverflowCallbackRegister *****************
  3869 ;; Defined at:
  3870 ;;		line 115 in file "mcc_generated_files/timer/src/tmr0.c"
  3871 ;; Parameters:    Size  Location     Type
  3872 ;;  CallbackHand    2    8[COMRAM] PTR FTN()void 
  3873 ;;		 -> Timer0_DefaultOverflowCallback(1), 
  3874 ;; Auto vars:     Size  Location     Type
  3875 ;;		None
  3876 ;; Return value:  Size  Location     Type
  3877 ;;                  1    wreg      void 
  3878 ;; Registers used:
  3879 ;;		wreg, status,2, status,0
  3880 ;; Tracked objects:
  3881 ;;		On entry : 0/0
  3882 ;;		On exit  : 0/0
  3883 ;;		Unchanged: 0/0
  3884 ;; Data sizes:     COMRAM   BANK5   BANK6   BANK7   BANK8   BANK9  BANK10  BANK11  BANK12  BANK13  BANK14  BANK15  BANK1
      +6  BANK17  BANK18  BANK19  BANK20
  3885 ;;      Params:         2       0       0       0       0       0       0       0       0       0       0       0       
      +0       0       0       0       0
  3886 ;;      Locals:         0       0       0       0       0       0       0       0       0       0       0       0       
      +0       0       0       0       0
  3887 ;;      Temps:          0       0       0       0       0       0       0       0       0       0       0       0       
      +0       0       0       0       0
  3888 ;;      Totals:         2       0       0       0       0       0       0       0       0       0       0       0       
      +0       0       0       0       0
  3889 ;;Total ram usage:        2 bytes
  3890 ;; Hardware stack levels used: 1
  3891 ;; Hardware stack levels required when called: 3
  3892 ;; This function calls:
  3893 ;;		Nothing
  3894 ;; This function is called by:
  3895 ;;		_Timer0_Initialize
  3896 ;; This function uses a non-reentrant model
  3897 ;;
  3898                           
  3899                           	psect	text31
  3900   0025CA                     __ptext31:
  3901                           	callstack 0
  3902   0025CA                     _Timer0_OverflowCallbackRegister:
  3903                           	callstack 121
  3904   0025CA                     
  3905                           ;mcc_generated_files/timer/src/tmr0.c: 115: void Timer0_OverflowCallbackRegister(void (*
      +                           CallbackHandler)(void));mcc_generated_files/timer/src/tmr0.c: 116: {;mcc_generated_file
      +                          s/timer/src/tmr0.c: 117:     Timer0_OverflowCallback = CallbackHandler;
  3906   0025CA  C509  F5A4         	movff	Timer0_OverflowCallbackRegister@CallbackHandler,_Timer0_OverflowCallback
  3907   0025CE  C50A  F5A5         	movff	Timer0_OverflowCallbackRegister@CallbackHandler+1,_Timer0_OverflowCallback+1
  3908   0025D2  0012               	return		;funcret
  3909   0025D4                     __end_of_Timer0_OverflowCallbackRegister:
  3910                           	callstack 0
  3911                           
  3912 ;; *************** function _SystemArbiter_Initialize *****************
  3913 ;; Defined at:
  3914 ;;		line 83 in file "mcc_generated_files/system/src/system.c"
  3915 ;; Parameters:    Size  Location     Type
  3916 ;;		None
  3917 ;; Auto vars:     Size  Location     Type
  3918 ;;		None
  3919 ;; Return value:  Size  Location     Type
  3920 ;;                  1    wreg      void 
  3921 ;; Registers used:
  3922 ;;		wreg, status,2
  3923 ;; Tracked objects:
  3924 ;;		On entry : 0/0
  3925 ;;		On exit  : 0/0
  3926 ;;		Unchanged: 0/0
  3927 ;; Data sizes:     COMRAM   BANK5   BANK6   BANK7   BANK8   BANK9  BANK10  BANK11  BANK12  BANK13  BANK14  BANK15  BANK1
      +6  BANK17  BANK18  BANK19  BANK20
  3928 ;;      Params:         0       0       0       0       0       0       0       0       0       0       0       0       
      +0       0       0       0       0
  3929 ;;      Locals:         0       0       0       0       0       0       0       0       0       0       0       0       
      +0       0       0       0       0
  3930 ;;      Temps:          0       0       0       0       0       0       0       0       0       0       0       0       
      +0       0       0       0       0
  3931 ;;      Totals:         0       0       0       0       0       0       0       0       0       0       0       0       
      +0       0       0       0       0
  3932 ;;Total ram usage:        0 bytes
  3933 ;; Hardware stack levels used: 1
  3934 ;; Hardware stack levels required when called: 3
  3935 ;; This function calls:
  3936 ;;		Nothing
  3937 ;; This function is called by:
  3938 ;;		_SYSTEM_Initialize
  3939 ;; This function uses a non-reentrant model
  3940 ;;
  3941                           
  3942                           	psect	text32
  3943   002598                     __ptext32:
  3944                           	callstack 0
  3945   002598                     _SystemArbiter_Initialize:
  3946                           	callstack 122
  3947   002598                     
  3948                           ;mcc_generated_files/system/src/system.c: 86:     PRLOCK = 0x55;
  3949   002598  0E55               	movlw	85
  3950   00259A  0100               	movlb	0	; () banked
  3951   00259C  6FB4               	movwf	180,b	;volatile
  3952                           
  3953                           ;mcc_generated_files/system/src/system.c: 87:     PRLOCK = 0xAA;
  3954   00259E  0EAA               	movlw	170
  3955   0025A0  6FB4               	movwf	180,b	;volatile
  3956   0025A2                     
  3957                           ; BSR set to: 0
  3958                           ;mcc_generated_files/system/src/system.c: 88:     PRLOCKbits.PRLOCKED = 1;
  3959   0025A2  81B4               	bsf	180,0,b	;volatile
  3960   0025A4                     
  3961                           ; BSR set to: 0
  3962   0025A4  0012               	return		;funcret
  3963   0025A6                     __end_of_SystemArbiter_Initialize:
  3964                           	callstack 0
  3965                           
  3966 ;; *************** function _PIN_MANAGER_Initialize *****************
  3967 ;; Defined at:
  3968 ;;		line 38 in file "mcc_generated_files/system/src/pins.c"
  3969 ;; Parameters:    Size  Location     Type
  3970 ;;		None
  3971 ;; Auto vars:     Size  Location     Type
  3972 ;;		None
  3973 ;; Return value:  Size  Location     Type
  3974 ;;                  1    wreg      void 
  3975 ;; Registers used:
  3976 ;;		wreg, status,2
  3977 ;; Tracked objects:
  3978 ;;		On entry : 0/0
  3979 ;;		On exit  : 0/0
  3980 ;;		Unchanged: 0/0
  3981 ;; Data sizes:     COMRAM   BANK5   BANK6   BANK7   BANK8   BANK9  BANK10  BANK11  BANK12  BANK13  BANK14  BANK15  BANK1
      +6  BANK17  BANK18  BANK19  BANK20
  3982 ;;      Params:         0       0       0       0       0       0       0       0       0       0       0       0       
      +0       0       0       0       0
  3983 ;;      Locals:         0       0       0       0       0       0       0       0       0       0       0       0       
      +0       0       0       0       0
  3984 ;;      Temps:          0       0       0       0       0       0       0       0       0       0       0       0       
      +0       0       0       0       0
  3985 ;;      Totals:         0       0       0       0       0       0       0       0       0       0       0       0       
      +0       0       0       0       0
  3986 ;;Total ram usage:        0 bytes
  3987 ;; Hardware stack levels used: 1
  3988 ;; Hardware stack levels required when called: 3
  3989 ;; This function calls:
  3990 ;;		Nothing
  3991 ;; This function is called by:
  3992 ;;		_SYSTEM_Initialize
  3993 ;; This function uses a non-reentrant model
  3994 ;;
  3995                           
  3996                           	psect	text33
  3997   001D96                     __ptext33:
  3998                           	callstack 0
  3999   001D96                     _PIN_MANAGER_Initialize:
  4000                           	callstack 122
  4001   001D96                     
  4002                           ;mcc_generated_files/system/src/pins.c: 43:     LATA = 0x0;
  4003   001D96  0E00               	movlw	0
  4004   001D98  6EBE               	movwf	190,c	;volatile
  4005                           
  4006                           ;mcc_generated_files/system/src/pins.c: 44:     LATB = 0x0;
  4007   001D9A  0E00               	movlw	0
  4008   001D9C  6EBF               	movwf	191,c	;volatile
  4009                           
  4010                           ;mcc_generated_files/system/src/pins.c: 45:     LATC = 0x0;
  4011   001D9E  0E00               	movlw	0
  4012   001DA0  6EC0               	movwf	192,c	;volatile
  4013                           
  4014                           ;mcc_generated_files/system/src/pins.c: 50:     TRISA = 0x3F;
  4015   001DA2  0E3F               	movlw	63
  4016   001DA4  6EC6               	movwf	198,c	;volatile
  4017                           
  4018                           ;mcc_generated_files/system/src/pins.c: 51:     TRISB = 0x70;
  4019   001DA6  0E70               	movlw	112
  4020   001DA8  6EC7               	movwf	199,c	;volatile
  4021                           
  4022                           ;mcc_generated_files/system/src/pins.c: 52:     TRISC = 0xFD;
  4023   001DAA  0EFD               	movlw	253
  4024   001DAC  6EC8               	movwf	200,c	;volatile
  4025                           
  4026                           ;mcc_generated_files/system/src/pins.c: 57:     ANSELA = 0x37;
  4027   001DAE  0E37               	movlw	55
  4028   001DB0  0104               	movlb	4	; () banked
  4029   001DB2  6F00               	movwf	0,b	;volatile
  4030                           
  4031                           ;mcc_generated_files/system/src/pins.c: 58:     ANSELB = 0x50;
  4032   001DB4  0E50               	movlw	80
  4033   001DB6  6F08               	movwf	8,b	;volatile
  4034                           
  4035                           ;mcc_generated_files/system/src/pins.c: 59:     ANSELC = 0xFD;
  4036   001DB8  0EFD               	movlw	253
  4037   001DBA  6F10               	movwf	16,b	;volatile
  4038                           
  4039                           ;mcc_generated_files/system/src/pins.c: 64:     WPUA = 0x0;
  4040   001DBC  0E00               	movlw	0
  4041   001DBE  6F01               	movwf	1,b	;volatile
  4042                           
  4043                           ;mcc_generated_files/system/src/pins.c: 65:     WPUB = 0x0;
  4044   001DC0  0E00               	movlw	0
  4045   001DC2  6F09               	movwf	9,b	;volatile
  4046                           
  4047                           ;mcc_generated_files/system/src/pins.c: 66:     WPUC = 0x0;
  4048   001DC4  0E00               	movlw	0
  4049   001DC6  6F11               	movwf	17,b	;volatile
  4050                           
  4051                           ;mcc_generated_files/system/src/pins.c: 71:     RB4I2C = 0x0;
  4052   001DC8  0E00               	movlw	0
  4053   001DCA  0102               	movlb	2	; () banked
  4054   001DCC  6F87               	movwf	135,b	;volatile
  4055                           
  4056                           ;mcc_generated_files/system/src/pins.c: 72:     RB6I2C = 0x0;
  4057   001DCE  0E00               	movlw	0
  4058   001DD0  6F86               	movwf	134,b	;volatile
  4059                           
  4060                           ;mcc_generated_files/system/src/pins.c: 77:     ODCONA = 0x0;
  4061   001DD2  0E00               	movlw	0
  4062   001DD4  0104               	movlb	4	; () banked
  4063   001DD6  6F02               	movwf	2,b	;volatile
  4064                           
  4065                           ;mcc_generated_files/system/src/pins.c: 78:     ODCONB = 0x0;
  4066   001DD8  0E00               	movlw	0
  4067   001DDA  6F0A               	movwf	10,b	;volatile
  4068                           
  4069                           ;mcc_generated_files/system/src/pins.c: 79:     ODCONC = 0x0;
  4070   001DDC  0E00               	movlw	0
  4071   001DDE  6F12               	movwf	18,b	;volatile
  4072                           
  4073                           ;mcc_generated_files/system/src/pins.c: 84:     SLRCONA = 0x37;
  4074   001DE0  0E37               	movlw	55
  4075   001DE2  6F03               	movwf	3,b	;volatile
  4076                           
  4077                           ;mcc_generated_files/system/src/pins.c: 85:     SLRCONB = 0xF0;
  4078   001DE4  0EF0               	movlw	240
  4079   001DE6  6F0B               	movwf	11,b	;volatile
  4080   001DE8                     
  4081                           ; BSR set to: 4
  4082                           ;mcc_generated_files/system/src/pins.c: 86:     SLRCONC = 0xFF;
  4083   001DE8  6913               	setf	19,b	;volatile
  4084                           
  4085                           ;mcc_generated_files/system/src/pins.c: 91:     INLVLA = 0x3F;
  4086   001DEA  0E3F               	movlw	63
  4087   001DEC  6F04               	movwf	4,b	;volatile
  4088                           
  4089                           ;mcc_generated_files/system/src/pins.c: 92:     INLVLB = 0xF0;
  4090   001DEE  0EF0               	movlw	240
  4091   001DF0  6F0C               	movwf	12,b	;volatile
  4092   001DF2                     
  4093                           ; BSR set to: 4
  4094                           ;mcc_generated_files/system/src/pins.c: 93:     INLVLC = 0xFF;
  4095   001DF2  6914               	setf	20,b	;volatile
  4096                           
  4097                           ;mcc_generated_files/system/src/pins.c: 97:     U1RXPPS = 0xD;
  4098   001DF4  0E0D               	movlw	13
  4099   001DF6  0102               	movlb	2	; () banked
  4100   001DF8  6F72               	movwf	114,b	;volatile
  4101                           
  4102                           ;mcc_generated_files/system/src/pins.c: 98:     RB7PPS = 0x10;
  4103   001DFA  0E10               	movlw	16
  4104   001DFC  6F10               	movwf	16,b	;volatile
  4105                           
  4106                           ;mcc_generated_files/system/src/pins.c: 103:     IOCAP = 0x0;
  4107   001DFE  0E00               	movlw	0
  4108   001E00  0104               	movlb	4	; () banked
  4109   001E02  6F05               	movwf	5,b	;volatile
  4110                           
  4111                           ;mcc_generated_files/system/src/pins.c: 104:     IOCAN = 0x0;
  4112   001E04  0E00               	movlw	0
  4113   001E06  6F06               	movwf	6,b	;volatile
  4114                           
  4115                           ;mcc_generated_files/system/src/pins.c: 105:     IOCAF = 0x0;
  4116   001E08  0E00               	movlw	0
  4117   001E0A  6F07               	movwf	7,b	;volatile
  4118                           
  4119                           ;mcc_generated_files/system/src/pins.c: 106:     IOCBP = 0x0;
  4120   001E0C  0E00               	movlw	0
  4121   001E0E  6F0D               	movwf	13,b	;volatile
  4122                           
  4123                           ;mcc_generated_files/system/src/pins.c: 107:     IOCBN = 0x0;
  4124   001E10  0E00               	movlw	0
  4125   001E12  6F0E               	movwf	14,b	;volatile
  4126                           
  4127                           ;mcc_generated_files/system/src/pins.c: 108:     IOCBF = 0x0;
  4128   001E14  0E00               	movlw	0
  4129   001E16  6F0F               	movwf	15,b	;volatile
  4130                           
  4131                           ;mcc_generated_files/system/src/pins.c: 109:     IOCCP = 0x0;
  4132   001E18  0E00               	movlw	0
  4133   001E1A  6F15               	movwf	21,b	;volatile
  4134                           
  4135                           ;mcc_generated_files/system/src/pins.c: 110:     IOCCN = 0x0;
  4136   001E1C  0E00               	movlw	0
  4137   001E1E  6F16               	movwf	22,b	;volatile
  4138                           
  4139                           ;mcc_generated_files/system/src/pins.c: 111:     IOCCF = 0x0;
  4140   001E20  0E00               	movlw	0
  4141   001E22  6F17               	movwf	23,b	;volatile
  4142   001E24                     
  4143                           ; BSR set to: 4
  4144   001E24  0012               	return		;funcret
  4145   001E26                     __end_of_PIN_MANAGER_Initialize:
  4146                           	callstack 0
  4147                           
  4148 ;; *************** function _INTERRUPT_Initialize *****************
  4149 ;; Defined at:
  4150 ;;		line 42 in file "mcc_generated_files/system/src/interrupt.c"
  4151 ;; Parameters:    Size  Location     Type
  4152 ;;		None
  4153 ;; Auto vars:     Size  Location     Type
  4154 ;;  state           1   10[COMRAM] _Bool 
  4155 ;; Return value:  Size  Location     Type
  4156 ;;                  1    wreg      void 
  4157 ;; Registers used:
  4158 ;;		wreg, status,2, status,0, cstack
  4159 ;; Tracked objects:
  4160 ;;		On entry : 0/0
  4161 ;;		On exit  : 0/0
  4162 ;;		Unchanged: 0/0
  4163 ;; Data sizes:     COMRAM   BANK5   BANK6   BANK7   BANK8   BANK9  BANK10  BANK11  BANK12  BANK13  BANK14  BANK15  BANK1
      +6  BANK17  BANK18  BANK19  BANK20
  4164 ;;      Params:         0       0       0       0       0       0       0       0       0       0       0       0       
      +0       0       0       0       0
  4165 ;;      Locals:         1       0       0       0       0       0       0       0       0       0       0       0       
      +0       0       0       0       0
  4166 ;;      Temps:          0       0       0       0       0       0       0       0       0       0       0       0       
      +0       0       0       0       0
  4167 ;;      Totals:         1       0       0       0       0       0       0       0       0       0       0       0       
      +0       0       0       0       0
  4168 ;;Total ram usage:        1 bytes
  4169 ;; Hardware stack levels used: 1
  4170 ;; Hardware stack levels required when called: 4
  4171 ;; This function calls:
  4172 ;;		_INT0_SetInterruptHandler
  4173 ;;		_INT1_SetInterruptHandler
  4174 ;;		_INT2_SetInterruptHandler
  4175 ;; This function is called by:
  4176 ;;		_SYSTEM_Initialize
  4177 ;; This function uses a non-reentrant model
  4178 ;;
  4179                           
  4180                           	psect	text34
  4181   002004                     __ptext34:
  4182                           	callstack 0
  4183   002004                     _INTERRUPT_Initialize:
  4184                           	callstack 121
  4185   002004                     
  4186                           ;mcc_generated_files/system/src/interrupt.c: 44:     INTCON0bits.IPEN = 1;
  4187   002004  8AD6               	bsf	214,5,c	;volatile
  4188   002006                     
  4189                           ;mcc_generated_files/system/src/interrupt.c: 46:     _Bool state = (unsigned char)GIE;
  4190   002006  0E00               	movlw	0
  4191   002008  BED6               	btfsc	1238,7,c	;volatile
  4192   00200A  0E01               	movlw	1
  4193   00200C  6E0B               	movwf	INTERRUPT_Initialize@state^(0+1280),c
  4194   00200E                     
  4195                           ;mcc_generated_files/system/src/interrupt.c: 47:     GIE = 0;
  4196   00200E  9ED6               	bcf	1238,7,c	;volatile
  4197                           
  4198                           ;mcc_generated_files/system/src/interrupt.c: 48:     IVTLOCK = 0x55;
  4199   002010  0E55               	movlw	85
  4200   002012  0104               	movlb	4	; () banked
  4201   002014  6F59               	movwf	89,b	;volatile
  4202                           
  4203                           ;mcc_generated_files/system/src/interrupt.c: 49:     IVTLOCK = 0xAA;
  4204   002016  0EAA               	movlw	170
  4205   002018  6F59               	movwf	89,b	;volatile
  4206   00201A                     
  4207                           ; BSR set to: 4
  4208                           ;mcc_generated_files/system/src/interrupt.c: 50:     IVTLOCKbits.IVTLOCKED = 0x00;
  4209   00201A  9159               	bcf	89,0,b	;volatile
  4210                           
  4211                           ;mcc_generated_files/system/src/interrupt.c: 52:     IVTBASEU = 0;
  4212   00201C  0E00               	movlw	0
  4213   00201E  6F5F               	movwf	95,b	;volatile
  4214                           
  4215                           ;mcc_generated_files/system/src/interrupt.c: 53:     IVTBASEH = 0;
  4216   002020  0E00               	movlw	0
  4217   002022  6F5E               	movwf	94,b	;volatile
  4218                           
  4219                           ;mcc_generated_files/system/src/interrupt.c: 54:     IVTBASEL = 8;
  4220   002024  0E08               	movlw	8
  4221   002026  6F5D               	movwf	93,b	;volatile
  4222                           
  4223                           ;mcc_generated_files/system/src/interrupt.c: 56:     IVTLOCK = 0x55;
  4224   002028  0E55               	movlw	85
  4225   00202A  6F59               	movwf	89,b	;volatile
  4226                           
  4227                           ;mcc_generated_files/system/src/interrupt.c: 57:     IVTLOCK = 0xAA;
  4228   00202C  0EAA               	movlw	170
  4229   00202E  6F59               	movwf	89,b	;volatile
  4230   002030                     
  4231                           ; BSR set to: 4
  4232                           ;mcc_generated_files/system/src/interrupt.c: 58:     IVTLOCKbits.IVTLOCKED = 0x01;
  4233   002030  8159               	bsf	89,0,b	;volatile
  4234   002032                     
  4235                           ; BSR set to: 4
  4236                           ;mcc_generated_files/system/src/interrupt.c: 60:     GIE = state;
  4237   002032  B00B               	btfsc	INTERRUPT_Initialize@state^(0+1280),0,c
  4238   002034  D002               	bra	u1375
  4239   002036  9ED6               	bcf	1238,7,c	;volatile
  4240   002038  D001               	bra	u1376
  4241   00203A                     u1375:
  4242   00203A  8ED6               	bsf	1238,7,c	;volatile
  4243   00203C                     u1376:
  4244   00203C                     
  4245                           ;mcc_generated_files/system/src/interrupt.c: 62:     IPR0bits.IOCIP = 1;
  4246   00203C  0103               	movlb	3	; () banked
  4247   00203E  8F67               	bsf	103,7,b	;volatile
  4248   002040                     
  4249                           ; BSR set to: 3
  4250                           ;mcc_generated_files/system/src/interrupt.c: 63:     IPR2bits.DMA1SCNTIP = 1;
  4251   002040  8969               	bsf	105,4,b	;volatile
  4252   002042                     
  4253                           ; BSR set to: 3
  4254                           ;mcc_generated_files/system/src/interrupt.c: 67:     (PIR1bits.INT0IF = 0);
  4255   002042  90B4               	bcf	180,0,c	;volatile
  4256   002044                     
  4257                           ; BSR set to: 3
  4258                           ;mcc_generated_files/system/src/interrupt.c: 68:     (INTCON0bits.INT0EDG = 1);
  4259   002044  80D6               	bsf	214,0,c	;volatile
  4260   002046                     
  4261                           ; BSR set to: 3
  4262                           ;mcc_generated_files/system/src/interrupt.c: 70:     INT0_SetInterruptHandler(INT0_Defau
      +                          ltInterruptHandler);
  4263   002046  0E20               	movlw	low _INT0_DefaultInterruptHandler
  4264   002048  6E09               	movwf	INT0_SetInterruptHandler@InterruptHandler^(0+1280),c
  4265   00204A  0E26               	movlw	high _INT0_DefaultInterruptHandler
  4266   00204C  6E0A               	movwf	(INT0_SetInterruptHandler@InterruptHandler+1)^(0+1280),c
  4267   00204E  ECF4  F012         	call	_INT0_SetInterruptHandler	;wreg free
  4268   002052                     
  4269                           ;mcc_generated_files/system/src/interrupt.c: 75:     (PIR6bits.INT1IF = 0);
  4270   002052  90B9               	bcf	185,0,c	;volatile
  4271   002054                     
  4272                           ;mcc_generated_files/system/src/interrupt.c: 76:     (INTCON0bits.INT1EDG = 1);
  4273   002054  82D6               	bsf	214,1,c	;volatile
  4274   002056                     
  4275                           ;mcc_generated_files/system/src/interrupt.c: 78:     INT1_SetInterruptHandler(INT1_Defau
      +                          ltInterruptHandler);
  4276   002056  0E22               	movlw	low _INT1_DefaultInterruptHandler
  4277   002058  6E09               	movwf	INT1_SetInterruptHandler@InterruptHandler^(0+1280),c
  4278   00205A  0E26               	movlw	high _INT1_DefaultInterruptHandler
  4279   00205C  6E0A               	movwf	(INT1_SetInterruptHandler@InterruptHandler+1)^(0+1280),c
  4280   00205E  ECEF  F012         	call	_INT1_SetInterruptHandler	;wreg free
  4281   002062                     
  4282                           ;mcc_generated_files/system/src/interrupt.c: 83:     (PIR10bits.INT2IF = 0);
  4283   002062  90BD               	bcf	189,0,c	;volatile
  4284   002064                     
  4285                           ;mcc_generated_files/system/src/interrupt.c: 84:     (INTCON0bits.INT2EDG = 1);
  4286   002064  84D6               	bsf	214,2,c	;volatile
  4287   002066                     
  4288                           ;mcc_generated_files/system/src/interrupt.c: 86:     INT2_SetInterruptHandler(INT2_Defau
      +                          ltInterruptHandler);
  4289   002066  0E24               	movlw	low _INT2_DefaultInterruptHandler
  4290   002068  6E09               	movwf	INT2_SetInterruptHandler@InterruptHandler^(0+1280),c
  4291   00206A  0E26               	movlw	high _INT2_DefaultInterruptHandler
  4292   00206C  6E0A               	movwf	(INT2_SetInterruptHandler@InterruptHandler+1)^(0+1280),c
  4293   00206E  ECEA  F012         	call	_INT2_SetInterruptHandler	;wreg free
  4294   002072  0012               	return		;funcret
  4295   002074                     __end_of_INTERRUPT_Initialize:
  4296                           	callstack 0
  4297                           
  4298 ;; *************** function _INT2_SetInterruptHandler *****************
  4299 ;; Defined at:
  4300 ;;		line 194 in file "mcc_generated_files/system/src/interrupt.c"
  4301 ;; Parameters:    Size  Location     Type
  4302 ;;  InterruptHan    2    8[COMRAM] PTR FTN()void 
  4303 ;;		 -> INT2_DefaultInterruptHandler(1), 
  4304 ;; Auto vars:     Size  Location     Type
  4305 ;;		None
  4306 ;; Return value:  Size  Location     Type
  4307 ;;                  1    wreg      void 
  4308 ;; Registers used:
  4309 ;;		wreg, status,2, status,0
  4310 ;; Tracked objects:
  4311 ;;		On entry : 0/0
  4312 ;;		On exit  : 0/0
  4313 ;;		Unchanged: 0/0
  4314 ;; Data sizes:     COMRAM   BANK5   BANK6   BANK7   BANK8   BANK9  BANK10  BANK11  BANK12  BANK13  BANK14  BANK15  BANK1
      +6  BANK17  BANK18  BANK19  BANK20
  4315 ;;      Params:         2       0       0       0       0       0       0       0       0       0       0       0       
      +0       0       0       0       0
  4316 ;;      Locals:         0       0       0       0       0       0       0       0       0       0       0       0       
      +0       0       0       0       0
  4317 ;;      Temps:          0       0       0       0       0       0       0       0       0       0       0       0       
      +0       0       0       0       0
  4318 ;;      Totals:         2       0       0       0       0       0       0       0       0       0       0       0       
      +0       0       0       0       0
  4319 ;;Total ram usage:        2 bytes
  4320 ;; Hardware stack levels used: 1
  4321 ;; Hardware stack levels required when called: 3
  4322 ;; This function calls:
  4323 ;;		Nothing
  4324 ;; This function is called by:
  4325 ;;		_INTERRUPT_Initialize
  4326 ;; This function uses a non-reentrant model
  4327 ;;
  4328                           
  4329                           	psect	text35
  4330   0025D4                     __ptext35:
  4331                           	callstack 0
  4332   0025D4                     _INT2_SetInterruptHandler:
  4333                           	callstack 121
  4334   0025D4                     
  4335                           ;mcc_generated_files/system/src/interrupt.c: 195:     INT2_InterruptHandler = InterruptH
      +                          andler;
  4336   0025D4  C509  F562         	movff	INT2_SetInterruptHandler@InterruptHandler,_INT2_InterruptHandler
  4337   0025D8  C50A  F563         	movff	INT2_SetInterruptHandler@InterruptHandler+1,_INT2_InterruptHandler+1
  4338   0025DC  0012               	return		;funcret
  4339   0025DE                     __end_of_INT2_SetInterruptHandler:
  4340                           	callstack 0
  4341                           
  4342 ;; *************** function _INT1_SetInterruptHandler *****************
  4343 ;; Defined at:
  4344 ;;		line 160 in file "mcc_generated_files/system/src/interrupt.c"
  4345 ;; Parameters:    Size  Location     Type
  4346 ;;  InterruptHan    2    8[COMRAM] PTR FTN()void 
  4347 ;;		 -> INT1_DefaultInterruptHandler(1), 
  4348 ;; Auto vars:     Size  Location     Type
  4349 ;;		None
  4350 ;; Return value:  Size  Location     Type
  4351 ;;                  1    wreg      void 
  4352 ;; Registers used:
  4353 ;;		wreg, status,2, status,0
  4354 ;; Tracked objects:
  4355 ;;		On entry : 0/0
  4356 ;;		On exit  : 0/0
  4357 ;;		Unchanged: 0/0
  4358 ;; Data sizes:     COMRAM   BANK5   BANK6   BANK7   BANK8   BANK9  BANK10  BANK11  BANK12  BANK13  BANK14  BANK15  BANK1
      +6  BANK17  BANK18  BANK19  BANK20
  4359 ;;      Params:         2       0       0       0       0       0       0       0       0       0       0       0       
      +0       0       0       0       0
  4360 ;;      Locals:         0       0       0       0       0       0       0       0       0       0       0       0       
      +0       0       0       0       0
  4361 ;;      Temps:          0       0       0       0       0       0       0       0       0       0       0       0       
      +0       0       0       0       0
  4362 ;;      Totals:         2       0       0       0       0       0       0       0       0       0       0       0       
      +0       0       0       0       0
  4363 ;;Total ram usage:        2 bytes
  4364 ;; Hardware stack levels used: 1
  4365 ;; Hardware stack levels required when called: 3
  4366 ;; This function calls:
  4367 ;;		Nothing
  4368 ;; This function is called by:
  4369 ;;		_INTERRUPT_Initialize
  4370 ;; This function uses a non-reentrant model
  4371 ;;
  4372                           
  4373                           	psect	text36
  4374   0025DE                     __ptext36:
  4375                           	callstack 0
  4376   0025DE                     _INT1_SetInterruptHandler:
  4377                           	callstack 121
  4378   0025DE                     
  4379                           ;mcc_generated_files/system/src/interrupt.c: 161:     INT1_InterruptHandler = InterruptH
      +                          andler;
  4380   0025DE  C509  F564         	movff	INT1_SetInterruptHandler@InterruptHandler,_INT1_InterruptHandler
  4381   0025E2  C50A  F565         	movff	INT1_SetInterruptHandler@InterruptHandler+1,_INT1_InterruptHandler+1
  4382   0025E6  0012               	return		;funcret
  4383   0025E8                     __end_of_INT1_SetInterruptHandler:
  4384                           	callstack 0
  4385                           
  4386 ;; *************** function _INT0_SetInterruptHandler *****************
  4387 ;; Defined at:
  4388 ;;		line 126 in file "mcc_generated_files/system/src/interrupt.c"
  4389 ;; Parameters:    Size  Location     Type
  4390 ;;  InterruptHan    2    8[COMRAM] PTR FTN()void 
  4391 ;;		 -> INT0_DefaultInterruptHandler(1), 
  4392 ;; Auto vars:     Size  Location     Type
  4393 ;;		None
  4394 ;; Return value:  Size  Location     Type
  4395 ;;                  1    wreg      void 
  4396 ;; Registers used:
  4397 ;;		wreg, status,2, status,0
  4398 ;; Tracked objects:
  4399 ;;		On entry : 0/0
  4400 ;;		On exit  : 0/0
  4401 ;;		Unchanged: 0/0
  4402 ;; Data sizes:     COMRAM   BANK5   BANK6   BANK7   BANK8   BANK9  BANK10  BANK11  BANK12  BANK13  BANK14  BANK15  BANK1
      +6  BANK17  BANK18  BANK19  BANK20
  4403 ;;      Params:         2       0       0       0       0       0       0       0       0       0       0       0       
      +0       0       0       0       0
  4404 ;;      Locals:         0       0       0       0       0       0       0       0       0       0       0       0       
      +0       0       0       0       0
  4405 ;;      Temps:          0       0       0       0       0       0       0       0       0       0       0       0       
      +0       0       0       0       0
  4406 ;;      Totals:         2       0       0       0       0       0       0       0       0       0       0       0       
      +0       0       0       0       0
  4407 ;;Total ram usage:        2 bytes
  4408 ;; Hardware stack levels used: 1
  4409 ;; Hardware stack levels required when called: 3
  4410 ;; This function calls:
  4411 ;;		Nothing
  4412 ;; This function is called by:
  4413 ;;		_INTERRUPT_Initialize
  4414 ;; This function uses a non-reentrant model
  4415 ;;
  4416                           
  4417                           	psect	text37
  4418   0025E8                     __ptext37:
  4419                           	callstack 0
  4420   0025E8                     _INT0_SetInterruptHandler:
  4421                           	callstack 121
  4422   0025E8                     
  4423                           ;mcc_generated_files/system/src/interrupt.c: 127:     INT0_InterruptHandler = InterruptH
      +                          andler;
  4424   0025E8  C509  F566         	movff	INT0_SetInterruptHandler@InterruptHandler,_INT0_InterruptHandler
  4425   0025EC  C50A  F567         	movff	INT0_SetInterruptHandler@InterruptHandler+1,_INT0_InterruptHandler+1
  4426   0025F0  0012               	return		;funcret
  4427   0025F2                     __end_of_INT0_SetInterruptHandler:
  4428                           	callstack 0
  4429                           
  4430 ;; *************** function _DMA1_Initialize *****************
  4431 ;; Defined at:
  4432 ;;		line 46 in file "mcc_generated_files/dma/src/dma1.c"
  4433 ;; Parameters:    Size  Location     Type
  4434 ;;		None
  4435 ;; Auto vars:     Size  Location     Type
  4436 ;;		None
  4437 ;; Return value:  Size  Location     Type
  4438 ;;                  1    wreg      void 
  4439 ;; Registers used:
  4440 ;;		wreg, status,2, status,0, cstack
  4441 ;; Tracked objects:
  4442 ;;		On entry : 0/0
  4443 ;;		On exit  : 0/0
  4444 ;;		Unchanged: 0/0
  4445 ;; Data sizes:     COMRAM   BANK5   BANK6   BANK7   BANK8   BANK9  BANK10  BANK11  BANK12  BANK13  BANK14  BANK15  BANK1
      +6  BANK17  BANK18  BANK19  BANK20
  4446 ;;      Params:         0       0       0       0       0       0       0       0       0       0       0       0       
      +0       0       0       0       0
  4447 ;;      Locals:         0       0       0       0       0       0       0       0       0       0       0       0       
      +0       0       0       0       0
  4448 ;;      Temps:          0       0       0       0       0       0       0       0       0       0       0       0       
      +0       0       0       0       0
  4449 ;;      Totals:         0       0       0       0       0       0       0       0       0       0       0       0       
      +0       0       0       0       0
  4450 ;;Total ram usage:        0 bytes
  4451 ;; Hardware stack levels used: 1
  4452 ;; Hardware stack levels required when called: 4
  4453 ;; This function calls:
  4454 ;;		_DMA1_SetSCNTIInterruptHandler
  4455 ;; This function is called by:
  4456 ;;		_SYSTEM_Initialize
  4457 ;; This function uses a non-reentrant model
  4458 ;;
  4459                           
  4460                           	psect	text38
  4461   0020D8                     __ptext38:
  4462                           	callstack 0
  4463   0020D8                     _DMA1_Initialize:
  4464                           	callstack 121
  4465   0020D8                     
  4466                           ;mcc_generated_files/dma/src/dma1.c: 50:     DMASELECT = 0x0;
  4467   0020D8  0E00               	movlw	0
  4468   0020DA  0100               	movlb	0	; () banked
  4469   0020DC  6FE8               	movwf	232,b	;volatile
  4470                           
  4471                           ;mcc_generated_files/dma/src/dma1.c: 52:     DMAnSSA = &Src;
  4472   0020DE  0E98               	movlw	low _Src
  4473   0020E0  6FF9               	movwf	249,b	;volatile
  4474   0020E2  0E05               	movlw	high _Src
  4475   0020E4  6FFA               	movwf	250,b	;volatile
  4476   0020E6  0E00               	movlw	low (_Src shr (0+16))
  4477   0020E8  6FFB               	movwf	251,b	;volatile
  4478                           
  4479                           ;mcc_generated_files/dma/src/dma1.c: 54:     DMAnDSA= &Dst;
  4480   0020EA  0E05               	movlw	high _Dst
  4481   0020EC  6FF1               	movwf	241,b	;volatile
  4482   0020EE  0E96               	movlw	low _Dst
  4483   0020F0  6FF0               	movwf	240,b	;volatile
  4484                           
  4485                           ;mcc_generated_files/dma/src/dma1.c: 56:     DMAnCON1 = 0x0;
  4486   0020F2  0E00               	movlw	0
  4487   0020F4  6FFD               	movwf	253,b	;volatile
  4488                           
  4489                           ;mcc_generated_files/dma/src/dma1.c: 58:     DMAnSSZ = 100;
  4490   0020F6  0E00               	movlw	0
  4491   0020F8  6FF8               	movwf	248,b	;volatile
  4492   0020FA  0E64               	movlw	100
  4493   0020FC  6FF7               	movwf	247,b	;volatile
  4494                           
  4495                           ;mcc_generated_files/dma/src/dma1.c: 60:     DMAnDSZ = 100;
  4496   0020FE  0E00               	movlw	0
  4497   002100  6FEF               	movwf	239,b	;volatile
  4498   002102  0E64               	movlw	100
  4499   002104  6FEE               	movwf	238,b	;volatile
  4500                           
  4501                           ;mcc_generated_files/dma/src/dma1.c: 62:     DMAnSIRQ = 0x0;
  4502   002106  0E00               	movlw	0
  4503   002108  6FFF               	movwf	255,b	;volatile
  4504                           
  4505                           ;mcc_generated_files/dma/src/dma1.c: 64:     DMAnAIRQ = 0x0;
  4506   00210A  0E00               	movlw	0
  4507   00210C  6FFE               	movwf	254,b	;volatile
  4508   00210E                     
  4509                           ; BSR set to: 0
  4510                           ;mcc_generated_files/dma/src/dma1.c: 67:     PIR2bits.DMA1DCNTIF = 0;
  4511   00210E  9AB5               	bcf	181,5,c	;volatile
  4512   002110                     
  4513                           ; BSR set to: 0
  4514                           ;mcc_generated_files/dma/src/dma1.c: 69:     PIR2bits.DMA1SCNTIF = 0;
  4515   002110  98B5               	bcf	181,4,c	;volatile
  4516   002112                     
  4517                           ; BSR set to: 0
  4518                           ;mcc_generated_files/dma/src/dma1.c: 71:     PIR2bits.DMA1AIF = 0;
  4519   002112  9EB5               	bcf	181,7,c	;volatile
  4520   002114                     
  4521                           ; BSR set to: 0
  4522                           ;mcc_generated_files/dma/src/dma1.c: 73:     PIR2bits.DMA1ORIF =0;
  4523   002114  9CB5               	bcf	181,6,c	;volatile
  4524   002116                     
  4525                           ; BSR set to: 0
  4526                           ;mcc_generated_files/dma/src/dma1.c: 75:     PIE2bits.DMA1DCNTIE = 0;
  4527   002116  9AAA               	bcf	170,5,c	;volatile
  4528   002118                     
  4529                           ; BSR set to: 0
  4530                           ;mcc_generated_files/dma/src/dma1.c: 76:     PIE2bits.DMA1SCNTIE = 1;
  4531   002118  88AA               	bsf	170,4,c	;volatile
  4532   00211A                     
  4533                           ; BSR set to: 0
  4534                           ;mcc_generated_files/dma/src/dma1.c: 77:  DMA1_SetSCNTIInterruptHandler(DMA1_DefaultInte
      +                          rruptHandler);
  4535   00211A  0E26               	movlw	low _DMA1_DefaultInterruptHandler
  4536   00211C  6E09               	movwf	DMA1_SetSCNTIInterruptHandler@InterruptHandler^(0+1280),c
  4537   00211E  0E26               	movlw	high _DMA1_DefaultInterruptHandler
  4538   002120  6E0A               	movwf	(DMA1_SetSCNTIInterruptHandler@InterruptHandler+1)^(0+1280),c
  4539   002122  ECF9  F012         	call	_DMA1_SetSCNTIInterruptHandler	;wreg free
  4540   002126                     
  4541                           ;mcc_generated_files/dma/src/dma1.c: 78:     PIE2bits.DMA1AIE = 0;
  4542   002126  9EAA               	bcf	170,7,c	;volatile
  4543   002128                     
  4544                           ;mcc_generated_files/dma/src/dma1.c: 79:     PIE2bits.DMA1ORIE = 0;
  4545   002128  9CAA               	bcf	170,6,c	;volatile
  4546   00212A                     
  4547                           ;mcc_generated_files/dma/src/dma1.c: 82:     DMAnCON0 = 0x80;
  4548   00212A  0E80               	movlw	128
  4549   00212C  0100               	movlb	0	; () banked
  4550   00212E  6FFC               	movwf	252,b	;volatile
  4551   002130                     
  4552                           ; BSR set to: 0
  4553   002130  0012               	return		;funcret
  4554   002132                     __end_of_DMA1_Initialize:
  4555                           	callstack 0
  4556                           
  4557 ;; *************** function _DMA1_SetSCNTIInterruptHandler *****************
  4558 ;; Defined at:
  4559 ;;		line 183 in file "mcc_generated_files/dma/src/dma1.c"
  4560 ;; Parameters:    Size  Location     Type
  4561 ;;  InterruptHan    2    8[COMRAM] PTR FTN()void 
  4562 ;;		 -> DMA1_DefaultInterruptHandler(1), DMA_ISR(1), 
  4563 ;; Auto vars:     Size  Location     Type
  4564 ;;		None
  4565 ;; Return value:  Size  Location     Type
  4566 ;;                  1    wreg      void 
  4567 ;; Registers used:
  4568 ;;		wreg, status,2, status,0
  4569 ;; Tracked objects:
  4570 ;;		On entry : 0/0
  4571 ;;		On exit  : 0/0
  4572 ;;		Unchanged: 0/0
  4573 ;; Data sizes:     COMRAM   BANK5   BANK6   BANK7   BANK8   BANK9  BANK10  BANK11  BANK12  BANK13  BANK14  BANK15  BANK1
      +6  BANK17  BANK18  BANK19  BANK20
  4574 ;;      Params:         2       0       0       0       0       0       0       0       0       0       0       0       
      +0       0       0       0       0
  4575 ;;      Locals:         0       0       0       0       0       0       0       0       0       0       0       0       
      +0       0       0       0       0
  4576 ;;      Temps:          0       0       0       0       0       0       0       0       0       0       0       0       
      +0       0       0       0       0
  4577 ;;      Totals:         2       0       0       0       0       0       0       0       0       0       0       0       
      +0       0       0       0       0
  4578 ;;Total ram usage:        2 bytes
  4579 ;; Hardware stack levels used: 1
  4580 ;; Hardware stack levels required when called: 3
  4581 ;; This function calls:
  4582 ;;		Nothing
  4583 ;; This function is called by:
  4584 ;;		_covert_channel
  4585 ;;		_DMA1_Initialize
  4586 ;; This function uses a non-reentrant model
  4587 ;;
  4588                           
  4589                           	psect	text39
  4590   0025F2                     __ptext39:
  4591                           	callstack 0
  4592   0025F2                     _DMA1_SetSCNTIInterruptHandler:
  4593                           	callstack 122
  4594   0025F2                     
  4595                           ;mcc_generated_files/dma/src/dma1.c: 183: void DMA1_SetSCNTIInterruptHandler(void (* Int
      +                          erruptHandler)(void));mcc_generated_files/dma/src/dma1.c: 184: {;mcc_generated_files/dma
      +                          /src/dma1.c: 185:   DMA1_SCNTI_InterruptHandler = InterruptHandler;
  4596   0025F2  C509  F5A2         	movff	DMA1_SetSCNTIInterruptHandler@InterruptHandler,_DMA1_SCNTI_InterruptHandler
  4597   0025F6  C50A  F5A3         	movff	DMA1_SetSCNTIInterruptHandler@InterruptHandler+1,_DMA1_SCNTI_InterruptHandler+1
  4598   0025FA  0012               	return		;funcret
  4599   0025FC                     __end_of_DMA1_SetSCNTIInterruptHandler:
  4600                           	callstack 0
  4601                           
  4602 ;; *************** function _CPU_Initialize *****************
  4603 ;; Defined at:
  4604 ;;		line 58 in file "mcc_generated_files/system/src/system.c"
  4605 ;; Parameters:    Size  Location     Type
  4606 ;;		None
  4607 ;; Auto vars:     Size  Location     Type
  4608 ;;		None
  4609 ;; Return value:  Size  Location     Type
  4610 ;;                  1    wreg      void 
  4611 ;; Registers used:
  4612 ;;		wreg, status,2
  4613 ;; Tracked objects:
  4614 ;;		On entry : 0/0
  4615 ;;		On exit  : 0/0
  4616 ;;		Unchanged: 0/0
  4617 ;; Data sizes:     COMRAM   BANK5   BANK6   BANK7   BANK8   BANK9  BANK10  BANK11  BANK12  BANK13  BANK14  BANK15  BANK1
      +6  BANK17  BANK18  BANK19  BANK20
  4618 ;;      Params:         0       0       0       0       0       0       0       0       0       0       0       0       
      +0       0       0       0       0
  4619 ;;      Locals:         0       0       0       0       0       0       0       0       0       0       0       0       
      +0       0       0       0       0
  4620 ;;      Temps:          0       0       0       0       0       0       0       0       0       0       0       0       
      +0       0       0       0       0
  4621 ;;      Totals:         0       0       0       0       0       0       0       0       0       0       0       0       
      +0       0       0       0       0
  4622 ;;Total ram usage:        0 bytes
  4623 ;; Hardware stack levels used: 1
  4624 ;; Hardware stack levels required when called: 3
  4625 ;; This function calls:
  4626 ;;		Nothing
  4627 ;; This function is called by:
  4628 ;;		_SYSTEM_Initialize
  4629 ;; This function uses a non-reentrant model
  4630 ;;
  4631                           
  4632                           	psect	text40
  4633   002402                     __ptext40:
  4634                           	callstack 0
  4635   002402                     _CPU_Initialize:
  4636                           	callstack 122
  4637   002402                     
  4638                           ;mcc_generated_files/system/src/system.c: 61:     PRLOCK = 0x0;
  4639   002402  0E00               	movlw	0
  4640   002404  0100               	movlb	0	; () banked
  4641   002406  6FB4               	movwf	180,b	;volatile
  4642                           
  4643                           ;mcc_generated_files/system/src/system.c: 63:     SCANPR = 0x7;
  4644   002408  0E07               	movlw	7
  4645   00240A  6FB5               	movwf	181,b	;volatile
  4646                           
  4647                           ;mcc_generated_files/system/src/system.c: 65:     DMA1PR = 0x7;
  4648   00240C  0E07               	movlw	7
  4649   00240E  6FB6               	movwf	182,b	;volatile
  4650                           
  4651                           ;mcc_generated_files/system/src/system.c: 67:     DMA2PR = 0x7;
  4652   002410  0E07               	movlw	7
  4653   002412  6FB7               	movwf	183,b	;volatile
  4654                           
  4655                           ;mcc_generated_files/system/src/system.c: 69:     DMA3PR = 0x7;
  4656   002414  0E07               	movlw	7
  4657   002416  6FB8               	movwf	184,b	;volatile
  4658                           
  4659                           ;mcc_generated_files/system/src/system.c: 71:     DMA4PR = 0x7;
  4660   002418  0E07               	movlw	7
  4661   00241A  6FB9               	movwf	185,b	;volatile
  4662                           
  4663                           ;mcc_generated_files/system/src/system.c: 73:     MAINPR = 0x7;
  4664   00241C  0E07               	movlw	7
  4665   00241E  6FBE               	movwf	190,b	;volatile
  4666                           
  4667                           ;mcc_generated_files/system/src/system.c: 75:     ISRPR = 0x7;
  4668   002420  0E07               	movlw	7
  4669   002422  6FBF               	movwf	191,b	;volatile
  4670                           
  4671                           ;mcc_generated_files/system/src/system.c: 77:     PRODH = 0x0;
  4672   002424  0E00               	movlw	0
  4673   002426  6EF4               	movwf	244,c	;volatile
  4674                           
  4675                           ;mcc_generated_files/system/src/system.c: 79:     PRODL = 0x0;
  4676   002428  0E00               	movlw	0
  4677   00242A  6EF3               	movwf	243,c	;volatile
  4678   00242C                     
  4679                           ; BSR set to: 0
  4680   00242C  0012               	return		;funcret
  4681   00242E                     __end_of_CPU_Initialize:
  4682                           	callstack 0
  4683                           
  4684 ;; *************** function _CLOCK_Initialize *****************
  4685 ;; Defined at:
  4686 ;;		line 37 in file "mcc_generated_files/system/src/clock.c"
  4687 ;; Parameters:    Size  Location     Type
  4688 ;;		None
  4689 ;; Auto vars:     Size  Location     Type
  4690 ;;		None
  4691 ;; Return value:  Size  Location     Type
  4692 ;;                  1    wreg      void 
  4693 ;; Registers used:
  4694 ;;		wreg, status,2
  4695 ;; Tracked objects:
  4696 ;;		On entry : 0/0
  4697 ;;		On exit  : 0/0
  4698 ;;		Unchanged: 0/0
  4699 ;; Data sizes:     COMRAM   BANK5   BANK6   BANK7   BANK8   BANK9  BANK10  BANK11  BANK12  BANK13  BANK14  BANK15  BANK1
      +6  BANK17  BANK18  BANK19  BANK20
  4700 ;;      Params:         0       0       0       0       0       0       0       0       0       0       0       0       
      +0       0       0       0       0
  4701 ;;      Locals:         0       0       0       0       0       0       0       0       0       0       0       0       
      +0       0       0       0       0
  4702 ;;      Temps:          0       0       0       0       0       0       0       0       0       0       0       0       
      +0       0       0       0       0
  4703 ;;      Totals:         0       0       0       0       0       0       0       0       0       0       0       0       
      +0       0       0       0       0
  4704 ;;Total ram usage:        0 bytes
  4705 ;; Hardware stack levels used: 1
  4706 ;; Hardware stack levels required when called: 3
  4707 ;; This function calls:
  4708 ;;		Nothing
  4709 ;; This function is called by:
  4710 ;;		_SYSTEM_Initialize
  4711 ;; This function uses a non-reentrant model
  4712 ;;
  4713                           
  4714                           	psect	text41
  4715   002534                     __ptext41:
  4716                           	callstack 0
  4717   002534                     _CLOCK_Initialize:
  4718                           	callstack 122
  4719   002534                     
  4720                           ;mcc_generated_files/system/src/clock.c: 41:     OSCCON1 = 0x60;
  4721   002534  0E60               	movlw	96
  4722   002536  0100               	movlb	0	; () banked
  4723   002538  6FAD               	movwf	173,b	;volatile
  4724                           
  4725                           ;mcc_generated_files/system/src/clock.c: 43:     OSCCON3 = 0x0;
  4726   00253A  0E00               	movlw	0
  4727   00253C  6FAF               	movwf	175,b	;volatile
  4728                           
  4729                           ;mcc_generated_files/system/src/clock.c: 45:     OSCEN = 0x0;
  4730   00253E  0E00               	movlw	0
  4731   002540  6FB3               	movwf	179,b	;volatile
  4732                           
  4733                           ;mcc_generated_files/system/src/clock.c: 47:     OSCFRQ = 0x8;
  4734   002542  0E08               	movlw	8
  4735   002544  6FB1               	movwf	177,b	;volatile
  4736                           
  4737                           ;mcc_generated_files/system/src/clock.c: 49:     OSCTUNE = 0x0;
  4738   002546  0E00               	movlw	0
  4739   002548  6FB0               	movwf	176,b	;volatile
  4740                           
  4741                           ;mcc_generated_files/system/src/clock.c: 51:     ACTCON = 0x0;
  4742   00254A  0E00               	movlw	0
  4743   00254C  6FAC               	movwf	172,b	;volatile
  4744   00254E                     
  4745                           ; BSR set to: 0
  4746   00254E  0012               	return		;funcret
  4747   002550                     __end_of_CLOCK_Initialize:
  4748                           	callstack 0
  4749                           
  4750 ;; *************** function _Default_ISR *****************
  4751 ;; Defined at:
  4752 ;;		line 91 in file "mcc_generated_files/system/src/interrupt.c"
  4753 ;; Parameters:    Size  Location     Type
  4754 ;;		None
  4755 ;; Auto vars:     Size  Location     Type
  4756 ;;		None
  4757 ;; Return value:  Size  Location     Type
  4758 ;;                  1    wreg      void 
  4759 ;; Registers used:
  4760 ;;		None
  4761 ;; Tracked objects:
  4762 ;;		On entry : 0/0
  4763 ;;		On exit  : 0/0
  4764 ;;		Unchanged: 0/0
  4765 ;; Data sizes:     COMRAM   BANK5   BANK6   BANK7   BANK8   BANK9  BANK10  BANK11  BANK12  BANK13  BANK14  BANK15  BANK1
      +6  BANK17  BANK18  BANK19  BANK20
  4766 ;;      Params:         0       0       0       0       0       0       0       0       0       0       0       0       
      +0       0       0       0       0
  4767 ;;      Locals:         0       0       0       0       0       0       0       0       0       0       0       0       
      +0       0       0       0       0
  4768 ;;      Temps:          0       0       0       0       0       0       0       0       0       0       0       0       
      +0       0       0       0       0
  4769 ;;      Totals:         0       0       0       0       0       0       0       0       0       0       0       0       
      +0       0       0       0       0
  4770 ;;Total ram usage:        0 bytes
  4771 ;; Hardware stack levels used: 1
  4772 ;; This function calls:
  4773 ;;		Nothing
  4774 ;; This function is called by:
  4775 ;;		Interrupt level 2
  4776 ;; This function uses a non-reentrant model
  4777 ;;
  4778                           
  4779                           	psect	text42
  4780   00261C                     __ptext42:
  4781                           	callstack 0
  4782   00261C                     _Default_ISR:
  4783                           	callstack 115
  4784   00261C  0011               	retfie		f
  4785   00261E                     __end_of_Default_ISR:
  4786                           	callstack 0
  4787                           
  4788 ;; *************** function _IOC_ISR *****************
  4789 ;; Defined at:
  4790 ;;		line 95 in file "mcc_generated_files/system/src/interrupt.c"
  4791 ;; Parameters:    Size  Location     Type
  4792 ;;		None
  4793 ;; Auto vars:     Size  Location     Type
  4794 ;;		None
  4795 ;; Return value:  Size  Location     Type
  4796 ;;                  1    wreg      void 
  4797 ;; Registers used:
  4798 ;;		cstack
  4799 ;; Tracked objects:
  4800 ;;		On entry : 0/0
  4801 ;;		On exit  : 0/0
  4802 ;;		Unchanged: 0/0
  4803 ;; Data sizes:     COMRAM   BANK5   BANK6   BANK7   BANK8   BANK9  BANK10  BANK11  BANK12  BANK13  BANK14  BANK15  BANK1
      +6  BANK17  BANK18  BANK19  BANK20
  4804 ;;      Params:         0       0       0       0       0       0       0       0       0       0       0       0       
      +0       0       0       0       0
  4805 ;;      Locals:         0       0       0       0       0       0       0       0       0       0       0       0       
      +0       0       0       0       0
  4806 ;;      Temps:          0       0       0       0       0       0       0       0       0       0       0       0       
      +0       0       0       0       0
  4807 ;;      Totals:         0       0       0       0       0       0       0       0       0       0       0       0       
      +0       0       0       0       0
  4808 ;;Total ram usage:        0 bytes
  4809 ;; Hardware stack levels used: 1
  4810 ;; Hardware stack levels required when called: 1
  4811 ;; This function calls:
  4812 ;;		_PIN_MANAGER_IOC
  4813 ;; This function is called by:
  4814 ;;		Interrupt level 2
  4815 ;; This function uses a non-reentrant model
  4816 ;;
  4817                           
  4818                           	psect	text43
  4819   00260C                     __ptext43:
  4820                           	callstack 0
  4821   00260C                     _IOC_ISR:
  4822                           	callstack 114
  4823   00260C                     
  4824                           ;mcc_generated_files/system/src/interrupt.c: 97:     PIN_MANAGER_IOC();
  4825   00260C  EC0F  F013         	call	_PIN_MANAGER_IOC	;wreg free
  4826   002610  0011               	retfie		f
  4827   002612                     __end_of_IOC_ISR:
  4828                           	callstack 0
  4829                           
  4830 ;; *************** function _PIN_MANAGER_IOC *****************
  4831 ;; Defined at:
  4832 ;;		line 116 in file "mcc_generated_files/system/src/pins.c"
  4833 ;; Parameters:    Size  Location     Type
  4834 ;;		None
  4835 ;; Auto vars:     Size  Location     Type
  4836 ;;		None
  4837 ;; Return value:  Size  Location     Type
  4838 ;;                  1    wreg      void 
  4839 ;; Registers used:
  4840 ;;		None
  4841 ;; Tracked objects:
  4842 ;;		On entry : 0/0
  4843 ;;		On exit  : 0/0
  4844 ;;		Unchanged: 0/0
  4845 ;; Data sizes:     COMRAM   BANK5   BANK6   BANK7   BANK8   BANK9  BANK10  BANK11  BANK12  BANK13  BANK14  BANK15  BANK1
      +6  BANK17  BANK18  BANK19  BANK20
  4846 ;;      Params:         0       0       0       0       0       0       0       0       0       0       0       0       
      +0       0       0       0       0
  4847 ;;      Locals:         0       0       0       0       0       0       0       0       0       0       0       0       
      +0       0       0       0       0
  4848 ;;      Temps:          0       0       0       0       0       0       0       0       0       0       0       0       
      +0       0       0       0       0
  4849 ;;      Totals:         0       0       0       0       0       0       0       0       0       0       0       0       
      +0       0       0       0       0
  4850 ;;Total ram usage:        0 bytes
  4851 ;; Hardware stack levels used: 1
  4852 ;; This function calls:
  4853 ;;		Nothing
  4854 ;; This function is called by:
  4855 ;;		_IOC_ISR
  4856 ;; This function uses a non-reentrant model
  4857 ;;
  4858                           
  4859                           	psect	text44
  4860   00261E                     __ptext44:
  4861                           	callstack 0
  4862   00261E                     _PIN_MANAGER_IOC:
  4863                           	callstack 114
  4864   00261E  0012               	return		;funcret
  4865   002620                     __end_of_PIN_MANAGER_IOC:
  4866                           	callstack 0
  4867                           
  4868 ;; *************** function _INT0_ISR *****************
  4869 ;; Defined at:
  4870 ;;		line 108 in file "mcc_generated_files/system/src/interrupt.c"
  4871 ;; Parameters:    Size  Location     Type
  4872 ;;		None
  4873 ;; Auto vars:     Size  Location     Type
  4874 ;;		None
  4875 ;; Return value:  Size  Location     Type
  4876 ;;                  1    wreg      void 
  4877 ;; Registers used:
  4878 ;;		wreg, status,2, status,0, pcl, pclath, pclatu, tosl, cstack
  4879 ;; Tracked objects:
  4880 ;;		On entry : 0/0
  4881 ;;		On exit  : 0/0
  4882 ;;		Unchanged: 0/0
  4883 ;; Data sizes:     COMRAM   BANK5   BANK6   BANK7   BANK8   BANK9  BANK10  BANK11  BANK12  BANK13  BANK14  BANK15  BANK1
      +6  BANK17  BANK18  BANK19  BANK20
  4884 ;;      Params:         0       0       0       0       0       0       0       0       0       0       0       0       
      +0       0       0       0       0
  4885 ;;      Locals:         0       0       0       0       0       0       0       0       0       0       0       0       
      +0       0       0       0       0
  4886 ;;      Temps:          2       0       0       0       0       0       0       0       0       0       0       0       
      +0       0       0       0       0
  4887 ;;      Totals:         2       0       0       0       0       0       0       0       0       0       0       0       
      +0       0       0       0       0
  4888 ;;Total ram usage:        2 bytes
  4889 ;; Hardware stack levels used: 1
  4890 ;; Hardware stack levels required when called: 2
  4891 ;; This function calls:
  4892 ;;		_INT0_CallBack
  4893 ;; This function is called by:
  4894 ;;		Interrupt level 2
  4895 ;; This function uses a non-reentrant model
  4896 ;;
  4897                           
  4898                           	psect	text45
  4899   002550                     __ptext45:
  4900                           	callstack 0
  4901   002550                     _INT0_ISR:
  4902                           	callstack 113
  4903                           
  4904                           ;incstack = 0
  4905   002550  C4FA F501          	movff	pclath,??_INT0_ISR
  4906   002554  C4FB F502          	movff	pclatu,??_INT0_ISR+1
  4907   002558                     
  4908                           ;mcc_generated_files/system/src/interrupt.c: 110:     (PIR1bits.INT0IF = 0);
  4909   002558  90B4               	bcf	180,0,c	;volatile
  4910   00255A                     
  4911                           ;mcc_generated_files/system/src/interrupt.c: 113:     INT0_CallBack();
  4912   00255A  ECBC  F011         	call	_INT0_CallBack	;wreg free
  4913   00255E  C502  F4FB         	movff	??_INT0_ISR+1,pclatu
  4914   002562  C501  F4FA         	movff	??_INT0_ISR,pclath
  4915   002566  0011               	retfie		f
  4916   002568                     __end_of_INT0_ISR:
  4917                           	callstack 0
  4918                           
  4919 ;; *************** function _INT0_CallBack *****************
  4920 ;; Defined at:
  4921 ;;		line 117 in file "mcc_generated_files/system/src/interrupt.c"
  4922 ;; Parameters:    Size  Location     Type
  4923 ;;		None
  4924 ;; Auto vars:     Size  Location     Type
  4925 ;;		None
  4926 ;; Return value:  Size  Location     Type
  4927 ;;                  1    wreg      void 
  4928 ;; Registers used:
  4929 ;;		wreg, status,2, status,0, pcl, pclath, pclatu, tosl, cstack
  4930 ;; Tracked objects:
  4931 ;;		On entry : 0/0
  4932 ;;		On exit  : 0/0
  4933 ;;		Unchanged: 0/0
  4934 ;; Data sizes:     COMRAM   BANK5   BANK6   BANK7   BANK8   BANK9  BANK10  BANK11  BANK12  BANK13  BANK14  BANK15  BANK1
      +6  BANK17  BANK18  BANK19  BANK20
  4935 ;;      Params:         0       0       0       0       0       0       0       0       0       0       0       0       
      +0       0       0       0       0
  4936 ;;      Locals:         0       0       0       0       0       0       0       0       0       0       0       0       
      +0       0       0       0       0
  4937 ;;      Temps:          0       0       0       0       0       0       0       0       0       0       0       0       
      +0       0       0       0       0
  4938 ;;      Totals:         0       0       0       0       0       0       0       0       0       0       0       0       
      +0       0       0       0       0
  4939 ;;Total ram usage:        0 bytes
  4940 ;; Hardware stack levels used: 1
  4941 ;; Hardware stack levels required when called: 1
  4942 ;; This function calls:
  4943 ;;		NULL
  4944 ;;		_INT0_DefaultInterruptHandler
  4945 ;; This function is called by:
  4946 ;;		_INT0_ISR
  4947 ;; This function uses a non-reentrant model
  4948 ;;
  4949                           
  4950                           	psect	text46
  4951   002378                     __ptext46:
  4952                           	callstack 0
  4953   002378                     _INT0_CallBack:
  4954                           	callstack 113
  4955   002378                     
  4956                           ;mcc_generated_files/system/src/interrupt.c: 120:     if(INT0_InterruptHandler)
  4957   002378  0105               	movlb	5	; () banked
  4958   00237A  5166               	movf	_INT0_InterruptHandler& (0+255),w,b
  4959   00237C  1167               	iorwf	(_INT0_InterruptHandler+1)& (0+255),w,b
  4960   00237E  B4D8               	btfsc	status,2,c
  4961   002380  EFC4  F011         	goto	i2u139_41
  4962   002384  EFC6  F011         	goto	i2u139_40
  4963   002388                     i2u139_41:
  4964   002388  EFD2  F011         	goto	i2l535
  4965   00238C                     i2u139_40:
  4966   00238C                     
  4967                           ; BSR set to: 5
  4968                           ;mcc_generated_files/system/src/interrupt.c: 121:     {;mcc_generated_files/system/src/i
      +                          nterrupt.c: 122:         INT0_InterruptHandler();
  4969   00238C  D802               	call	i2u140_48
  4970   00238E  EFD2  F011         	goto	i2u140_49
  4971   002392                     i2u140_48:
  4972   002392  0005               	push	
  4973   002394  6EFA               	movwf	pclath,c
  4974   002396  5166               	movf	_INT0_InterruptHandler& (0+255),w,b
  4975   002398  6EFD               	movwf	tosl,c
  4976   00239A  5167               	movf	(_INT0_InterruptHandler+1)& (0+255),w,b
  4977   00239C  6EFE               	movwf	tosh,c
  4978   00239E  6AFF               	clrf	tosu,c
  4979   0023A0  50FA               	movf	pclath,w,c
  4980   0023A2  0012               	return		;indir
  4981   0023A4                     i2u140_49:
  4982   0023A4                     i2l535:
  4983   0023A4  0012               	return		;funcret
  4984   0023A6                     __end_of_INT0_CallBack:
  4985                           	callstack 0
  4986                           
  4987 ;; *************** function _INT0_DefaultInterruptHandler *****************
  4988 ;; Defined at:
  4989 ;;		line 130 in file "mcc_generated_files/system/src/interrupt.c"
  4990 ;; Parameters:    Size  Location     Type
  4991 ;;		None
  4992 ;; Auto vars:     Size  Location     Type
  4993 ;;		None
  4994 ;; Return value:  Size  Location     Type
  4995 ;;                  1    wreg      void 
  4996 ;; Registers used:
  4997 ;;		None
  4998 ;; Tracked objects:
  4999 ;;		On entry : 0/0
  5000 ;;		On exit  : 0/0
  5001 ;;		Unchanged: 0/0
  5002 ;; Data sizes:     COMRAM   BANK5   BANK6   BANK7   BANK8   BANK9  BANK10  BANK11  BANK12  BANK13  BANK14  BANK15  BANK1
      +6  BANK17  BANK18  BANK19  BANK20
  5003 ;;      Params:         0       0       0       0       0       0       0       0       0       0       0       0       
      +0       0       0       0       0
  5004 ;;      Locals:         0       0       0       0       0       0       0       0       0       0       0       0       
      +0       0       0       0       0
  5005 ;;      Temps:          0       0       0       0       0       0       0       0       0       0       0       0       
      +0       0       0       0       0
  5006 ;;      Totals:         0       0       0       0       0       0       0       0       0       0       0       0       
      +0       0       0       0       0
  5007 ;;Total ram usage:        0 bytes
  5008 ;; Hardware stack levels used: 1
  5009 ;; This function calls:
  5010 ;;		Nothing
  5011 ;; This function is called by:
  5012 ;;		_INTERRUPT_Initialize
  5013 ;;		_INT0_CallBack
  5014 ;; This function uses a non-reentrant model
  5015 ;;
  5016                           
  5017                           	psect	text47
  5018   002620                     __ptext47:
  5019                           	callstack 0
  5020   002620                     _INT0_DefaultInterruptHandler:
  5021                           	callstack 113
  5022   002620  0012               	return		;funcret
  5023   002622                     __end_of_INT0_DefaultInterruptHandler:
  5024                           	callstack 0
  5025                           
  5026 ;; *************** function _INT1_ISR *****************
  5027 ;; Defined at:
  5028 ;;		line 142 in file "mcc_generated_files/system/src/interrupt.c"
  5029 ;; Parameters:    Size  Location     Type
  5030 ;;		None
  5031 ;; Auto vars:     Size  Location     Type
  5032 ;;		None
  5033 ;; Return value:  Size  Location     Type
  5034 ;;                  1    wreg      void 
  5035 ;; Registers used:
  5036 ;;		wreg, status,2, status,0, pcl, pclath, pclatu, tosl, cstack
  5037 ;; Tracked objects:
  5038 ;;		On entry : 0/0
  5039 ;;		On exit  : 0/0
  5040 ;;		Unchanged: 0/0
  5041 ;; Data sizes:     COMRAM   BANK5   BANK6   BANK7   BANK8   BANK9  BANK10  BANK11  BANK12  BANK13  BANK14  BANK15  BANK1
      +6  BANK17  BANK18  BANK19  BANK20
  5042 ;;      Params:         0       0       0       0       0       0       0       0       0       0       0       0       
      +0       0       0       0       0
  5043 ;;      Locals:         0       0       0       0       0       0       0       0       0       0       0       0       
      +0       0       0       0       0
  5044 ;;      Temps:          2       0       0       0       0       0       0       0       0       0       0       0       
      +0       0       0       0       0
  5045 ;;      Totals:         2       0       0       0       0       0       0       0       0       0       0       0       
      +0       0       0       0       0
  5046 ;;Total ram usage:        2 bytes
  5047 ;; Hardware stack levels used: 1
  5048 ;; Hardware stack levels required when called: 2
  5049 ;; This function calls:
  5050 ;;		_INT1_CallBack
  5051 ;; This function is called by:
  5052 ;;		Interrupt level 2
  5053 ;; This function uses a non-reentrant model
  5054 ;;
  5055                           
  5056                           	psect	text48
  5057   002568                     __ptext48:
  5058                           	callstack 0
  5059   002568                     _INT1_ISR:
  5060                           	callstack 113
  5061                           
  5062                           ;incstack = 0
  5063   002568  C4FA F503          	movff	pclath,??_INT1_ISR
  5064   00256C  C4FB F504          	movff	pclatu,??_INT1_ISR+1
  5065   002570                     
  5066                           ;mcc_generated_files/system/src/interrupt.c: 144:     (PIR6bits.INT1IF = 0);
  5067   002570  90B9               	bcf	185,0,c	;volatile
  5068   002572                     
  5069                           ;mcc_generated_files/system/src/interrupt.c: 147:     INT1_CallBack();
  5070   002572  ECD3  F011         	call	_INT1_CallBack	;wreg free
  5071   002576  C504  F4FB         	movff	??_INT1_ISR+1,pclatu
  5072   00257A  C503  F4FA         	movff	??_INT1_ISR,pclath
  5073   00257E  0011               	retfie		f
  5074   002580                     __end_of_INT1_ISR:
  5075                           	callstack 0
  5076                           
  5077 ;; *************** function _INT1_CallBack *****************
  5078 ;; Defined at:
  5079 ;;		line 151 in file "mcc_generated_files/system/src/interrupt.c"
  5080 ;; Parameters:    Size  Location     Type
  5081 ;;		None
  5082 ;; Auto vars:     Size  Location     Type
  5083 ;;		None
  5084 ;; Return value:  Size  Location     Type
  5085 ;;                  1    wreg      void 
  5086 ;; Registers used:
  5087 ;;		wreg, status,2, status,0, pcl, pclath, pclatu, tosl, cstack
  5088 ;; Tracked objects:
  5089 ;;		On entry : 0/0
  5090 ;;		On exit  : 0/0
  5091 ;;		Unchanged: 0/0
  5092 ;; Data sizes:     COMRAM   BANK5   BANK6   BANK7   BANK8   BANK9  BANK10  BANK11  BANK12  BANK13  BANK14  BANK15  BANK1
      +6  BANK17  BANK18  BANK19  BANK20
  5093 ;;      Params:         0       0       0       0       0       0       0       0       0       0       0       0       
      +0       0       0       0       0
  5094 ;;      Locals:         0       0       0       0       0       0       0       0       0       0       0       0       
      +0       0       0       0       0
  5095 ;;      Temps:          0       0       0       0       0       0       0       0       0       0       0       0       
      +0       0       0       0       0
  5096 ;;      Totals:         0       0       0       0       0       0       0       0       0       0       0       0       
      +0       0       0       0       0
  5097 ;;Total ram usage:        0 bytes
  5098 ;; Hardware stack levels used: 1
  5099 ;; Hardware stack levels required when called: 1
  5100 ;; This function calls:
  5101 ;;		NULL
  5102 ;;		_INT1_DefaultInterruptHandler
  5103 ;; This function is called by:
  5104 ;;		_INT1_ISR
  5105 ;; This function uses a non-reentrant model
  5106 ;;
  5107                           
  5108                           	psect	text49
  5109   0023A6                     __ptext49:
  5110                           	callstack 0
  5111   0023A6                     _INT1_CallBack:
  5112                           	callstack 113
  5113   0023A6                     
  5114                           ;mcc_generated_files/system/src/interrupt.c: 154:     if(INT1_InterruptHandler)
  5115   0023A6  0105               	movlb	5	; () banked
  5116   0023A8  5164               	movf	_INT1_InterruptHandler& (0+255),w,b
  5117   0023AA  1165               	iorwf	(_INT1_InterruptHandler+1)& (0+255),w,b
  5118   0023AC  B4D8               	btfsc	status,2,c
  5119   0023AE  EFDB  F011         	goto	i2u141_41
  5120   0023B2  EFDD  F011         	goto	i2u141_40
  5121   0023B6                     i2u141_41:
  5122   0023B6  EFE9  F011         	goto	i2l550
  5123   0023BA                     i2u141_40:
  5124   0023BA                     
  5125                           ; BSR set to: 5
  5126                           ;mcc_generated_files/system/src/interrupt.c: 155:     {;mcc_generated_files/system/src/i
      +                          nterrupt.c: 156:         INT1_InterruptHandler();
  5127   0023BA  D802               	call	i2u142_48
  5128   0023BC  EFE9  F011         	goto	i2u142_49
  5129   0023C0                     i2u142_48:
  5130   0023C0  0005               	push	
  5131   0023C2  6EFA               	movwf	pclath,c
  5132   0023C4  5164               	movf	_INT1_InterruptHandler& (0+255),w,b
  5133   0023C6  6EFD               	movwf	tosl,c
  5134   0023C8  5165               	movf	(_INT1_InterruptHandler+1)& (0+255),w,b
  5135   0023CA  6EFE               	movwf	tosh,c
  5136   0023CC  6AFF               	clrf	tosu,c
  5137   0023CE  50FA               	movf	pclath,w,c
  5138   0023D0  0012               	return		;indir
  5139   0023D2                     i2u142_49:
  5140   0023D2                     i2l550:
  5141   0023D2  0012               	return		;funcret
  5142   0023D4                     __end_of_INT1_CallBack:
  5143                           	callstack 0
  5144                           
  5145 ;; *************** function _INT1_DefaultInterruptHandler *****************
  5146 ;; Defined at:
  5147 ;;		line 164 in file "mcc_generated_files/system/src/interrupt.c"
  5148 ;; Parameters:    Size  Location     Type
  5149 ;;		None
  5150 ;; Auto vars:     Size  Location     Type
  5151 ;;		None
  5152 ;; Return value:  Size  Location     Type
  5153 ;;                  1    wreg      void 
  5154 ;; Registers used:
  5155 ;;		None
  5156 ;; Tracked objects:
  5157 ;;		On entry : 0/0
  5158 ;;		On exit  : 0/0
  5159 ;;		Unchanged: 0/0
  5160 ;; Data sizes:     COMRAM   BANK5   BANK6   BANK7   BANK8   BANK9  BANK10  BANK11  BANK12  BANK13  BANK14  BANK15  BANK1
      +6  BANK17  BANK18  BANK19  BANK20
  5161 ;;      Params:         0       0       0       0       0       0       0       0       0       0       0       0       
      +0       0       0       0       0
  5162 ;;      Locals:         0       0       0       0       0       0       0       0       0       0       0       0       
      +0       0       0       0       0
  5163 ;;      Temps:          0       0       0       0       0       0       0       0       0       0       0       0       
      +0       0       0       0       0
  5164 ;;      Totals:         0       0       0       0       0       0       0       0       0       0       0       0       
      +0       0       0       0       0
  5165 ;;Total ram usage:        0 bytes
  5166 ;; Hardware stack levels used: 1
  5167 ;; This function calls:
  5168 ;;		Nothing
  5169 ;; This function is called by:
  5170 ;;		_INTERRUPT_Initialize
  5171 ;;		_INT1_CallBack
  5172 ;; This function uses a non-reentrant model
  5173 ;;
  5174                           
  5175                           	psect	text50
  5176   002622                     __ptext50:
  5177                           	callstack 0
  5178   002622                     _INT1_DefaultInterruptHandler:
  5179                           	callstack 113
  5180   002622  0012               	return		;funcret
  5181   002624                     __end_of_INT1_DefaultInterruptHandler:
  5182                           	callstack 0
  5183                           
  5184 ;; *************** function _INT2_ISR *****************
  5185 ;; Defined at:
  5186 ;;		line 176 in file "mcc_generated_files/system/src/interrupt.c"
  5187 ;; Parameters:    Size  Location     Type
  5188 ;;		None
  5189 ;; Auto vars:     Size  Location     Type
  5190 ;;		None
  5191 ;; Return value:  Size  Location     Type
  5192 ;;                  1    wreg      void 
  5193 ;; Registers used:
  5194 ;;		wreg, status,2, status,0, pcl, pclath, pclatu, tosl, cstack
  5195 ;; Tracked objects:
  5196 ;;		On entry : 0/0
  5197 ;;		On exit  : 0/0
  5198 ;;		Unchanged: 0/0
  5199 ;; Data sizes:     COMRAM   BANK5   BANK6   BANK7   BANK8   BANK9  BANK10  BANK11  BANK12  BANK13  BANK14  BANK15  BANK1
      +6  BANK17  BANK18  BANK19  BANK20
  5200 ;;      Params:         0       0       0       0       0       0       0       0       0       0       0       0       
      +0       0       0       0       0
  5201 ;;      Locals:         0       0       0       0       0       0       0       0       0       0       0       0       
      +0       0       0       0       0
  5202 ;;      Temps:          2       0       0       0       0       0       0       0       0       0       0       0       
      +0       0       0       0       0
  5203 ;;      Totals:         2       0       0       0       0       0       0       0       0       0       0       0       
      +0       0       0       0       0
  5204 ;;Total ram usage:        2 bytes
  5205 ;; Hardware stack levels used: 1
  5206 ;; Hardware stack levels required when called: 2
  5207 ;; This function calls:
  5208 ;;		_INT2_CallBack
  5209 ;; This function is called by:
  5210 ;;		Interrupt level 2
  5211 ;; This function uses a non-reentrant model
  5212 ;;
  5213                           
  5214                           	psect	text51
  5215   002580                     __ptext51:
  5216                           	callstack 0
  5217   002580                     _INT2_ISR:
  5218                           	callstack 113
  5219                           
  5220                           ;incstack = 0
  5221   002580  C4FA F505          	movff	pclath,??_INT2_ISR
  5222   002584  C4FB F506          	movff	pclatu,??_INT2_ISR+1
  5223   002588                     
  5224                           ;mcc_generated_files/system/src/interrupt.c: 178:     (PIR10bits.INT2IF = 0);
  5225   002588  90BD               	bcf	189,0,c	;volatile
  5226   00258A                     
  5227                           ;mcc_generated_files/system/src/interrupt.c: 181:     INT2_CallBack();
  5228   00258A  ECEA  F011         	call	_INT2_CallBack	;wreg free
  5229   00258E  C506  F4FB         	movff	??_INT2_ISR+1,pclatu
  5230   002592  C505  F4FA         	movff	??_INT2_ISR,pclath
  5231   002596  0011               	retfie		f
  5232   002598                     __end_of_INT2_ISR:
  5233                           	callstack 0
  5234                           
  5235 ;; *************** function _INT2_CallBack *****************
  5236 ;; Defined at:
  5237 ;;		line 185 in file "mcc_generated_files/system/src/interrupt.c"
  5238 ;; Parameters:    Size  Location     Type
  5239 ;;		None
  5240 ;; Auto vars:     Size  Location     Type
  5241 ;;		None
  5242 ;; Return value:  Size  Location     Type
  5243 ;;                  1    wreg      void 
  5244 ;; Registers used:
  5245 ;;		wreg, status,2, status,0, pcl, pclath, pclatu, tosl, cstack
  5246 ;; Tracked objects:
  5247 ;;		On entry : 0/0
  5248 ;;		On exit  : 0/0
  5249 ;;		Unchanged: 0/0
  5250 ;; Data sizes:     COMRAM   BANK5   BANK6   BANK7   BANK8   BANK9  BANK10  BANK11  BANK12  BANK13  BANK14  BANK15  BANK1
      +6  BANK17  BANK18  BANK19  BANK20
  5251 ;;      Params:         0       0       0       0       0       0       0       0       0       0       0       0       
      +0       0       0       0       0
  5252 ;;      Locals:         0       0       0       0       0       0       0       0       0       0       0       0       
      +0       0       0       0       0
  5253 ;;      Temps:          0       0       0       0       0       0       0       0       0       0       0       0       
      +0       0       0       0       0
  5254 ;;      Totals:         0       0       0       0       0       0       0       0       0       0       0       0       
      +0       0       0       0       0
  5255 ;;Total ram usage:        0 bytes
  5256 ;; Hardware stack levels used: 1
  5257 ;; Hardware stack levels required when called: 1
  5258 ;; This function calls:
  5259 ;;		NULL
  5260 ;;		_INT2_DefaultInterruptHandler
  5261 ;; This function is called by:
  5262 ;;		_INT2_ISR
  5263 ;; This function uses a non-reentrant model
  5264 ;;
  5265                           
  5266                           	psect	text52
  5267   0023D4                     __ptext52:
  5268                           	callstack 0
  5269   0023D4                     _INT2_CallBack:
  5270                           	callstack 113
  5271   0023D4                     
  5272                           ;mcc_generated_files/system/src/interrupt.c: 188:     if(INT2_InterruptHandler)
  5273   0023D4  0105               	movlb	5	; () banked
  5274   0023D6  5162               	movf	_INT2_InterruptHandler& (0+255),w,b
  5275   0023D8  1163               	iorwf	(_INT2_InterruptHandler+1)& (0+255),w,b
  5276   0023DA  B4D8               	btfsc	status,2,c
  5277   0023DC  EFF2  F011         	goto	i2u143_41
  5278   0023E0  EFF4  F011         	goto	i2u143_40
  5279   0023E4                     i2u143_41:
  5280   0023E4  EF00  F012         	goto	i2l565
  5281   0023E8                     i2u143_40:
  5282   0023E8                     
  5283                           ; BSR set to: 5
  5284                           ;mcc_generated_files/system/src/interrupt.c: 189:     {;mcc_generated_files/system/src/i
      +                          nterrupt.c: 190:         INT2_InterruptHandler();
  5285   0023E8  D802               	call	i2u144_48
  5286   0023EA  EF00  F012         	goto	i2u144_49
  5287   0023EE                     i2u144_48:
  5288   0023EE  0005               	push	
  5289   0023F0  6EFA               	movwf	pclath,c
  5290   0023F2  5162               	movf	_INT2_InterruptHandler& (0+255),w,b
  5291   0023F4  6EFD               	movwf	tosl,c
  5292   0023F6  5163               	movf	(_INT2_InterruptHandler+1)& (0+255),w,b
  5293   0023F8  6EFE               	movwf	tosh,c
  5294   0023FA  6AFF               	clrf	tosu,c
  5295   0023FC  50FA               	movf	pclath,w,c
  5296   0023FE  0012               	return		;indir
  5297   002400                     i2u144_49:
  5298   002400                     i2l565:
  5299   002400  0012               	return		;funcret
  5300   002402                     __end_of_INT2_CallBack:
  5301                           	callstack 0
  5302                           
  5303 ;; *************** function _INT2_DefaultInterruptHandler *****************
  5304 ;; Defined at:
  5305 ;;		line 198 in file "mcc_generated_files/system/src/interrupt.c"
  5306 ;; Parameters:    Size  Location     Type
  5307 ;;		None
  5308 ;; Auto vars:     Size  Location     Type
  5309 ;;		None
  5310 ;; Return value:  Size  Location     Type
  5311 ;;                  1    wreg      void 
  5312 ;; Registers used:
  5313 ;;		None
  5314 ;; Tracked objects:
  5315 ;;		On entry : 0/0
  5316 ;;		On exit  : 0/0
  5317 ;;		Unchanged: 0/0
  5318 ;; Data sizes:     COMRAM   BANK5   BANK6   BANK7   BANK8   BANK9  BANK10  BANK11  BANK12  BANK13  BANK14  BANK15  BANK1
      +6  BANK17  BANK18  BANK19  BANK20
  5319 ;;      Params:         0       0       0       0       0       0       0       0       0       0       0       0       
      +0       0       0       0       0
  5320 ;;      Locals:         0       0       0       0       0       0       0       0       0       0       0       0       
      +0       0       0       0       0
  5321 ;;      Temps:          0       0       0       0       0       0       0       0       0       0       0       0       
      +0       0       0       0       0
  5322 ;;      Totals:         0       0       0       0       0       0       0       0       0       0       0       0       
      +0       0       0       0       0
  5323 ;;Total ram usage:        0 bytes
  5324 ;; Hardware stack levels used: 1
  5325 ;; This function calls:
  5326 ;;		Nothing
  5327 ;; This function is called by:
  5328 ;;		_INTERRUPT_Initialize
  5329 ;;		_INT2_CallBack
  5330 ;; This function uses a non-reentrant model
  5331 ;;
  5332                           
  5333                           	psect	text53
  5334   002624                     __ptext53:
  5335                           	callstack 0
  5336   002624                     _INT2_DefaultInterruptHandler:
  5337                           	callstack 113
  5338   002624  0012               	return		;funcret
  5339   002626                     __end_of_INT2_DefaultInterruptHandler:
  5340                           	callstack 0
  5341                           
  5342 ;; *************** function _DMA1_DMASCNTI_ISR *****************
  5343 ;; Defined at:
  5344 ;;		line 174 in file "mcc_generated_files/dma/src/dma1.c"
  5345 ;; Parameters:    Size  Location     Type
  5346 ;;		None
  5347 ;; Auto vars:     Size  Location     Type
  5348 ;;		None
  5349 ;; Return value:  Size  Location     Type
  5350 ;;                  1    wreg      void 
  5351 ;; Registers used:
  5352 ;;		wreg, status,2, status,0, pcl, pclath, pclatu, tosl, cstack
  5353 ;; Tracked objects:
  5354 ;;		On entry : 0/0
  5355 ;;		On exit  : 0/0
  5356 ;;		Unchanged: 0/0
  5357 ;; Data sizes:     COMRAM   BANK5   BANK6   BANK7   BANK8   BANK9  BANK10  BANK11  BANK12  BANK13  BANK14  BANK15  BANK1
      +6  BANK17  BANK18  BANK19  BANK20
  5358 ;;      Params:         0       0       0       0       0       0       0       0       0       0       0       0       
      +0       0       0       0       0
  5359 ;;      Locals:         0       0       0       0       0       0       0       0       0       0       0       0       
      +0       0       0       0       0
  5360 ;;      Temps:          2       0       0       0       0       0       0       0       0       0       0       0       
      +0       0       0       0       0
  5361 ;;      Totals:         2       0       0       0       0       0       0       0       0       0       0       0       
      +0       0       0       0       0
  5362 ;;Total ram usage:        2 bytes
  5363 ;; Hardware stack levels used: 1
  5364 ;; Hardware stack levels required when called: 2
  5365 ;; This function calls:
  5366 ;;		NULL
  5367 ;;		_DMA1_DefaultInterruptHandler
  5368 ;;		_DMA_ISR
  5369 ;; This function is called by:
  5370 ;;		Interrupt level 2
  5371 ;; This function uses a non-reentrant model
  5372 ;;
  5373                           
  5374                           	psect	text54
  5375   00229C                     __ptext54:
  5376                           	callstack 0
  5377   00229C                     _DMA1_DMASCNTI_ISR:
  5378                           	callstack 113
  5379                           
  5380                           ;incstack = 0
  5381   00229C  C4FA F507          	movff	pclath,??_DMA1_DMASCNTI_ISR
  5382   0022A0  C4FB F508          	movff	pclatu,??_DMA1_DMASCNTI_ISR+1
  5383   0022A4                     
  5384                           ;mcc_generated_files/dma/src/dma1.c: 177:     PIR2bits.DMA1SCNTIF = 0;
  5385   0022A4  98B5               	bcf	181,4,c	;volatile
  5386   0022A6                     
  5387                           ;mcc_generated_files/dma/src/dma1.c: 179:     if (DMA1_SCNTI_InterruptHandler)
  5388   0022A6  0105               	movlb	5	; () banked
  5389   0022A8  51A2               	movf	_DMA1_SCNTI_InterruptHandler& (0+255),w,b
  5390   0022AA  11A3               	iorwf	(_DMA1_SCNTI_InterruptHandler+1)& (0+255),w,b
  5391   0022AC  B4D8               	btfsc	status,2,c
  5392   0022AE  EF5B  F011         	goto	i2u153_41
  5393   0022B2  EF5D  F011         	goto	i2u153_40
  5394   0022B6                     i2u153_41:
  5395   0022B6  EF69  F011         	goto	i2l728
  5396   0022BA                     i2u153_40:
  5397   0022BA                     
  5398                           ; BSR set to: 5
  5399                           ;mcc_generated_files/dma/src/dma1.c: 180:             DMA1_SCNTI_InterruptHandler();
  5400   0022BA  D802               	call	i2u154_48
  5401   0022BC  EF69  F011         	goto	i2u154_49
  5402   0022C0                     i2u154_48:
  5403   0022C0  0005               	push	
  5404   0022C2  6EFA               	movwf	pclath,c
  5405   0022C4  51A2               	movf	_DMA1_SCNTI_InterruptHandler& (0+255),w,b
  5406   0022C6  6EFD               	movwf	tosl,c
  5407   0022C8  51A3               	movf	(_DMA1_SCNTI_InterruptHandler+1)& (0+255),w,b
  5408   0022CA  6EFE               	movwf	tosh,c
  5409   0022CC  6AFF               	clrf	tosu,c
  5410   0022CE  50FA               	movf	pclath,w,c
  5411   0022D0  0012               	return		;indir
  5412   0022D2                     i2u154_49:
  5413   0022D2                     i2l728:
  5414   0022D2  C508  F4FB         	movff	??_DMA1_DMASCNTI_ISR+1,pclatu
  5415   0022D6  C507  F4FA         	movff	??_DMA1_DMASCNTI_ISR,pclath
  5416   0022DA  0011               	retfie		f
  5417   0022DC                     __end_of_DMA1_DMASCNTI_ISR:
  5418                           	callstack 0
  5419                           
  5420 ;; *************** function _DMA1_DefaultInterruptHandler *****************
  5421 ;; Defined at:
  5422 ;;		line 188 in file "mcc_generated_files/dma/src/dma1.c"
  5423 ;; Parameters:    Size  Location     Type
  5424 ;;		None
  5425 ;; Auto vars:     Size  Location     Type
  5426 ;;		None
  5427 ;; Return value:  Size  Location     Type
  5428 ;;                  1    wreg      void 
  5429 ;; Registers used:
  5430 ;;		None
  5431 ;; Tracked objects:
  5432 ;;		On entry : 0/0
  5433 ;;		On exit  : 0/0
  5434 ;;		Unchanged: 0/0
  5435 ;; Data sizes:     COMRAM   BANK5   BANK6   BANK7   BANK8   BANK9  BANK10  BANK11  BANK12  BANK13  BANK14  BANK15  BANK1
      +6  BANK17  BANK18  BANK19  BANK20
  5436 ;;      Params:         0       0       0       0       0       0       0       0       0       0       0       0       
      +0       0       0       0       0
  5437 ;;      Locals:         0       0       0       0       0       0       0       0       0       0       0       0       
      +0       0       0       0       0
  5438 ;;      Temps:          0       0       0       0       0       0       0       0       0       0       0       0       
      +0       0       0       0       0
  5439 ;;      Totals:         0       0       0       0       0       0       0       0       0       0       0       0       
      +0       0       0       0       0
  5440 ;;Total ram usage:        0 bytes
  5441 ;; Hardware stack levels used: 1
  5442 ;; This function calls:
  5443 ;;		Nothing
  5444 ;; This function is called by:
  5445 ;;		_DMA1_Initialize
  5446 ;;		_DMA1_DMASCNTI_ISR
  5447 ;; This function uses a non-reentrant model
  5448 ;;
  5449                           
  5450                           	psect	text55
  5451   002626                     __ptext55:
  5452                           	callstack 0
  5453   002626                     _DMA1_DefaultInterruptHandler:
  5454                           	callstack 114
  5455   002626  0012               	return		;funcret
  5456   002628                     __end_of_DMA1_DefaultInterruptHandler:
  5457                           	callstack 0
  5458                           
  5459 ;; *************** function _DMA_ISR *****************
  5460 ;; Defined at:
  5461 ;;		line 134 in file "main.c"
  5462 ;; Parameters:    Size  Location     Type
  5463 ;;		None
  5464 ;; Auto vars:     Size  Location     Type
  5465 ;;		None
  5466 ;; Return value:  Size  Location     Type
  5467 ;;                  1    wreg      void 
  5468 ;; Registers used:
  5469 ;;		wreg, status,2, cstack
  5470 ;; Tracked objects:
  5471 ;;		On entry : 0/0
  5472 ;;		On exit  : 0/0
  5473 ;;		Unchanged: 0/0
  5474 ;; Data sizes:     COMRAM   BANK5   BANK6   BANK7   BANK8   BANK9  BANK10  BANK11  BANK12  BANK13  BANK14  BANK15  BANK1
      +6  BANK17  BANK18  BANK19  BANK20
  5475 ;;      Params:         0       0       0       0       0       0       0       0       0       0       0       0       
      +0       0       0       0       0
  5476 ;;      Locals:         0       0       0       0       0       0       0       0       0       0       0       0       
      +0       0       0       0       0
  5477 ;;      Temps:          0       0       0       0       0       0       0       0       0       0       0       0       
      +0       0       0       0       0
  5478 ;;      Totals:         0       0       0       0       0       0       0       0       0       0       0       0       
      +0       0       0       0       0
  5479 ;;Total ram usage:        0 bytes
  5480 ;; Hardware stack levels used: 1
  5481 ;; Hardware stack levels required when called: 1
  5482 ;; This function calls:
  5483 ;;		_Timer0_Stop
  5484 ;; This function is called by:
  5485 ;;		_covert_channel
  5486 ;;		_DMA1_DMASCNTI_ISR
  5487 ;; This function uses a non-reentrant model
  5488 ;;
  5489                           
  5490                           	psect	text56
  5491   0025A6                     __ptext56:
  5492                           	callstack 0
  5493   0025A6                     _DMA_ISR:
  5494                           	callstack 113
  5495   0025A6                     
  5496                           ;main.c: 135:   Timer0_Stop();
  5497   0025A6  EC09  F013         	call	_Timer0_Stop	;wreg free
  5498   0025AA                     
  5499                           ;main.c: 136:   sync = 1;
  5500   0025AA  0E00               	movlw	0
  5501   0025AC  6E50               	movwf	(_sync+1)^(0+1280),c	;volatile
  5502   0025AE  0E01               	movlw	1
  5503   0025B0  6E4F               	movwf	_sync^(0+1280),c	;volatile
  5504   0025B2  0012               	return		;funcret
  5505   0025B4                     __end_of_DMA_ISR:
  5506                           	callstack 0
  5507                           
  5508 ;; *************** function _Timer0_Stop *****************
  5509 ;; Defined at:
  5510 ;;		line 79 in file "mcc_generated_files/timer/src/tmr0.c"
  5511 ;; Parameters:    Size  Location     Type
  5512 ;;		None
  5513 ;; Auto vars:     Size  Location     Type
  5514 ;;		None
  5515 ;; Return value:  Size  Location     Type
  5516 ;;                  1    wreg      void 
  5517 ;; Registers used:
  5518 ;;		None
  5519 ;; Tracked objects:
  5520 ;;		On entry : 0/0
  5521 ;;		On exit  : 0/0
  5522 ;;		Unchanged: 0/0
  5523 ;; Data sizes:     COMRAM   BANK5   BANK6   BANK7   BANK8   BANK9  BANK10  BANK11  BANK12  BANK13  BANK14  BANK15  BANK1
      +6  BANK17  BANK18  BANK19  BANK20
  5524 ;;      Params:         0       0       0       0       0       0       0       0       0       0       0       0       
      +0       0       0       0       0
  5525 ;;      Locals:         0       0       0       0       0       0       0       0       0       0       0       0       
      +0       0       0       0       0
  5526 ;;      Temps:          0       0       0       0       0       0       0       0       0       0       0       0       
      +0       0       0       0       0
  5527 ;;      Totals:         0       0       0       0       0       0       0       0       0       0       0       0       
      +0       0       0       0       0
  5528 ;;Total ram usage:        0 bytes
  5529 ;; Hardware stack levels used: 1
  5530 ;; This function calls:
  5531 ;;		Nothing
  5532 ;; This function is called by:
  5533 ;;		_DMA_ISR
  5534 ;; This function uses a non-reentrant model
  5535 ;;
  5536                           
  5537                           	psect	text57
  5538   002612                     __ptext57:
  5539                           	callstack 0
  5540   002612                     _Timer0_Stop:
  5541                           	callstack 113
  5542   002612                     
  5543                           ;mcc_generated_files/timer/src/tmr0.c: 81:     T0CON0bits.T0EN = 0;
  5544   002612  0103               	movlb	3	; () banked
  5545   002614  9F1A               	bcf	26,7,b	;volatile
  5546   002616                     
  5547                           ; BSR set to: 3
  5548   002616  0012               	return		;funcret
  5549   002618                     __end_of_Timer0_Stop:
  5550                           	callstack 0
  5551                           
  5552                           ;
  5553                           ; Interrupt Vector Table @ 0x8
  5554                           ;
  5555                           
  5556                           	psect	ivt0x8
  5557   000008                     __pivt0x8:
  5558                           	callstack 0
  5559   000008                     ivt0x8_base:
  5560                           	callstack 0
  5561                           
  5562                           ; Vector 0 : SWINT
  5563   000008  0987               	dw	_Default_ISR shr (0+2)
  5564                           
  5565                           ; Vector 1 : HLVD
  5566   00000A  0987               	dw	_Default_ISR shr (0+2)
  5567                           
  5568                           ; Vector 2 : OSF
  5569   00000C  0987               	dw	_Default_ISR shr (0+2)
  5570                           
  5571                           ; Vector 3 : CSW
  5572   00000E  0987               	dw	_Default_ISR shr (0+2)
  5573                           
  5574                           ; Vector 4 : NVMIP
  5575   000010  0987               	dw	_Default_ISR shr (0+2)
  5576                           
  5577                           ; Vector 5 : CLC1
  5578   000012  0987               	dw	_Default_ISR shr (0+2)
  5579                           
  5580                           ; Vector 6 : CRC
  5581   000014  0987               	dw	_Default_ISR shr (0+2)
  5582                           
  5583                           ; Vector 7 : IOC
  5584   000016  0983               	dw	_IOC_ISR shr (0+2)
  5585                           
  5586                           ; Vector 8 : INT0
  5587   000018  0954               	dw	_INT0_ISR shr (0+2)
  5588                           
  5589                           ; Vector 9 : ZCD
  5590   00001A  0987               	dw	_Default_ISR shr (0+2)
  5591                           
  5592                           ; Vector 10 : AD
  5593   00001C  0987               	dw	_Default_ISR shr (0+2)
  5594                           
  5595                           ; Vector 11 : ACT
  5596   00001E  0987               	dw	_Default_ISR shr (0+2)
  5597                           
  5598                           ; Vector 12 : CMP1
  5599   000020  0987               	dw	_Default_ISR shr (0+2)
  5600                           
  5601                           ; Vector 13 : SMT1
  5602   000022  0987               	dw	_Default_ISR shr (0+2)
  5603                           
  5604                           ; Vector 14 : SMT1PRA
  5605   000024  0987               	dw	_Default_ISR shr (0+2)
  5606                           
  5607                           ; Vector 15 : SMT1PWA
  5608   000026  0987               	dw	_Default_ISR shr (0+2)
  5609                           
  5610                           ; Vector 16 : ADT
  5611   000028  0987               	dw	_Default_ISR shr (0+2)
  5612                           
  5613                           ; Vector 17 : Undefined
  5614   00002A  002E               	dw	ivt0x8_undefint shr (0+2)
  5615                           
  5616                           ; Vector 18 : Undefined
  5617   00002C  002E               	dw	ivt0x8_undefint shr (0+2)
  5618                           
  5619                           ; Vector 19 : Undefined
  5620   00002E  002E               	dw	ivt0x8_undefint shr (0+2)
  5621                           
  5622                           ; Vector 20 : DMA1SCNT
  5623   000030  08A7               	dw	_DMA1_DMASCNTI_ISR shr (0+2)
  5624                           
  5625                           ; Vector 21 : DMA1DCNT
  5626   000032  0987               	dw	_Default_ISR shr (0+2)
  5627                           
  5628                           ; Vector 22 : DMA1OR
  5629   000034  0987               	dw	_Default_ISR shr (0+2)
  5630                           
  5631                           ; Vector 23 : DMA1A
  5632   000036  0987               	dw	_Default_ISR shr (0+2)
  5633                           
  5634                           ; Vector 24 : SPI1RX
  5635   000038  0987               	dw	_Default_ISR shr (0+2)
  5636                           
  5637                           ; Vector 25 : SPI1TX
  5638   00003A  0987               	dw	_Default_ISR shr (0+2)
  5639                           
  5640                           ; Vector 26 : SPI1
  5641   00003C  0987               	dw	_Default_ISR shr (0+2)
  5642                           
  5643                           ; Vector 27 : TMR2
  5644   00003E  0987               	dw	_Default_ISR shr (0+2)
  5645                           
  5646                           ; Vector 28 : TMR1
  5647   000040  0987               	dw	_Default_ISR shr (0+2)
  5648                           
  5649                           ; Vector 29 : TMR1G
  5650   000042  0987               	dw	_Default_ISR shr (0+2)
  5651                           
  5652                           ; Vector 30 : CCP1
  5653   000044  0987               	dw	_Default_ISR shr (0+2)
  5654                           
  5655                           ; Vector 31 : TMR0
  5656   000046  0987               	dw	_Default_ISR shr (0+2)
  5657                           
  5658                           ; Vector 32 : U1RX
  5659   000048  0987               	dw	_Default_ISR shr (0+2)
  5660                           
  5661                           ; Vector 33 : U1TX
  5662   00004A  0987               	dw	_Default_ISR shr (0+2)
  5663                           
  5664                           ; Vector 34 : U1E
  5665   00004C  0987               	dw	_Default_ISR shr (0+2)
  5666                           
  5667                           ; Vector 35 : U1
  5668   00004E  0987               	dw	_Default_ISR shr (0+2)
  5669                           
  5670                           ; Vector 36 : TMR3
  5671   000050  0987               	dw	_Default_ISR shr (0+2)
  5672                           
  5673                           ; Vector 37 : TMR3G
  5674   000052  0987               	dw	_Default_ISR shr (0+2)
  5675                           
  5676                           ; Vector 38 : PWM1PR
  5677   000054  0987               	dw	_Default_ISR shr (0+2)
  5678                           
  5679                           ; Vector 39 : PWM1
  5680   000056  0987               	dw	_Default_ISR shr (0+2)
  5681                           
  5682                           ; Vector 40 : SPI2RX
  5683   000058  0987               	dw	_Default_ISR shr (0+2)
  5684                           
  5685                           ; Vector 41 : SPI2TX
  5686   00005A  0987               	dw	_Default_ISR shr (0+2)
  5687                           
  5688                           ; Vector 42 : SPI2
  5689   00005C  0987               	dw	_Default_ISR shr (0+2)
  5690                           
  5691                           ; Vector 43 : Undefined
  5692   00005E  002E               	dw	ivt0x8_undefint shr (0+2)
  5693                           
  5694                           ; Vector 44 : CMP2
  5695   000060  0987               	dw	_Default_ISR shr (0+2)
  5696                           
  5697                           ; Vector 45 : CLC2
  5698   000062  0987               	dw	_Default_ISR shr (0+2)
  5699                           
  5700                           ; Vector 46 : PWM2PR
  5701   000064  0987               	dw	_Default_ISR shr (0+2)
  5702                           
  5703                           ; Vector 47 : PWM2
  5704   000066  0987               	dw	_Default_ISR shr (0+2)
  5705                           
  5706                           ; Vector 48 : INT1
  5707   000068  095A               	dw	_INT1_ISR shr (0+2)
  5708                           
  5709                           ; Vector 49 : CWG1
  5710   00006A  0987               	dw	_Default_ISR shr (0+2)
  5711                           
  5712                           ; Vector 50 : NCO1
  5713   00006C  0987               	dw	_Default_ISR shr (0+2)
  5714                           
  5715                           ; Vector 51 : DMA2SCNT
  5716   00006E  0987               	dw	_Default_ISR shr (0+2)
  5717                           
  5718                           ; Vector 52 : DMA2DCNT
  5719   000070  0987               	dw	_Default_ISR shr (0+2)
  5720                           
  5721                           ; Vector 53 : DMA2OR
  5722   000072  0987               	dw	_Default_ISR shr (0+2)
  5723                           
  5724                           ; Vector 54 : DMA2A
  5725   000074  0987               	dw	_Default_ISR shr (0+2)
  5726                           
  5727                           ; Vector 55 : Undefined
  5728   000076  002E               	dw	ivt0x8_undefint shr (0+2)
  5729                           
  5730                           ; Vector 56 : I2C1RX
  5731   000078  0987               	dw	_Default_ISR shr (0+2)
  5732                           
  5733                           ; Vector 57 : I2C1TX
  5734   00007A  0987               	dw	_Default_ISR shr (0+2)
  5735                           
  5736                           ; Vector 58 : I2C1
  5737   00007C  0987               	dw	_Default_ISR shr (0+2)
  5738                           
  5739                           ; Vector 59 : I2C1E
  5740   00007E  0987               	dw	_Default_ISR shr (0+2)
  5741                           
  5742                           ; Vector 60 : Undefined
  5743   000080  002E               	dw	ivt0x8_undefint shr (0+2)
  5744                           
  5745                           ; Vector 61 : CLC3
  5746   000082  0987               	dw	_Default_ISR shr (0+2)
  5747                           
  5748                           ; Vector 62 : PWM3PR
  5749   000084  0987               	dw	_Default_ISR shr (0+2)
  5750                           
  5751                           ; Vector 63 : PWM3
  5752   000086  0987               	dw	_Default_ISR shr (0+2)
  5753                           
  5754                           ; Vector 64 : U2RX
  5755   000088  0987               	dw	_Default_ISR shr (0+2)
  5756                           
  5757                           ; Vector 65 : U2TX
  5758   00008A  0987               	dw	_Default_ISR shr (0+2)
  5759                           
  5760                           ; Vector 66 : U2E
  5761   00008C  0987               	dw	_Default_ISR shr (0+2)
  5762                           
  5763                           ; Vector 67 : U2
  5764   00008E  0987               	dw	_Default_ISR shr (0+2)
  5765                           
  5766                           ; Vector 68 : Undefined
  5767   000090  002E               	dw	ivt0x8_undefint shr (0+2)
  5768                           
  5769                           ; Vector 69 : CLC4
  5770   000092  0987               	dw	_Default_ISR shr (0+2)
  5771                           
  5772                           ; Vector 70 : Undefined
  5773   000094  002E               	dw	ivt0x8_undefint shr (0+2)
  5774                           
  5775                           ; Vector 71 : SCAN
  5776   000096  0987               	dw	_Default_ISR shr (0+2)
  5777                           
  5778                           ; Vector 72 : U3RX
  5779   000098  0987               	dw	_Default_ISR shr (0+2)
  5780                           
  5781                           ; Vector 73 : U3TX
  5782   00009A  0987               	dw	_Default_ISR shr (0+2)
  5783                           
  5784                           ; Vector 74 : U3E
  5785   00009C  0987               	dw	_Default_ISR shr (0+2)
  5786                           
  5787                           ; Vector 75 : U3
  5788   00009E  0987               	dw	_Default_ISR shr (0+2)
  5789                           
  5790                           ; Vector 76 : DMA3SCNT
  5791   0000A0  0987               	dw	_Default_ISR shr (0+2)
  5792                           
  5793                           ; Vector 77 : DMA3DCNT
  5794   0000A2  0987               	dw	_Default_ISR shr (0+2)
  5795                           
  5796                           ; Vector 78 : DMA3OR
  5797   0000A4  0987               	dw	_Default_ISR shr (0+2)
  5798                           
  5799                           ; Vector 79 : DMA3A
  5800   0000A6  0987               	dw	_Default_ISR shr (0+2)
  5801                           
  5802                           ; Vector 80 : INT2
  5803   0000A8  0960               	dw	_INT2_ISR shr (0+2)
  5804                           
  5805                           ; Vector 81 : Undefined
  5806   0000AA  002E               	dw	ivt0x8_undefint shr (0+2)
  5807                           
  5808                           ; Vector 82 : Undefined
  5809   0000AC  002E               	dw	ivt0x8_undefint shr (0+2)
  5810                           
  5811                           ; Vector 83 : TMR4
  5812   0000AE  0987               	dw	_Default_ISR shr (0+2)
  5813                           
  5814                           ; Vector 84 : DMA4SCNT
  5815   0000B0  0987               	dw	_Default_ISR shr (0+2)
  5816                           
  5817                           ; Vector 85 : DMA4DCNT
  5818   0000B2  0987               	dw	_Default_ISR shr (0+2)
  5819                           
  5820                           ; Vector 86 : DMA4OR
  5821   0000B4  0987               	dw	_Default_ISR shr (0+2)
  5822                           
  5823                           ; Vector 87 : DMA4A
  5824   0000B6  0987               	dw	_Default_ISR shr (0+2)
  5825   0000B8                     ivt0x8_undefint:
  5826                           	callstack 0
  5827   0000B8  00FF               	reset	
  5828                           
  5829                           	psect	text58
  5830   000000                     __ptext58:
  5831                           	callstack 0
  5832   000000                     
  5833                           	psect	rparam
  5834   000000                     
  5835                           	psect	idloc
  5836                           
  5837                           ;Config register IDLOC0 @ 0x200000
  5838                           ;	unspecified, using default values
  5839   200000                     	org	2097152
  5840   200000  0FFF               	dw	4095
  5841                           
  5842                           ;Config register IDLOC1 @ 0x200002
  5843                           ;	unspecified, using default values
  5844   200002                     	org	2097154
  5845   200002  0FFF               	dw	4095
  5846                           
  5847                           ;Config register IDLOC2 @ 0x200004
  5848                           ;	unspecified, using default values
  5849   200004                     	org	2097156
  5850   200004  0FFF               	dw	4095
  5851                           
  5852                           ;Config register IDLOC3 @ 0x200006
  5853                           ;	unspecified, using default values
  5854   200006                     	org	2097158
  5855   200006  0FFF               	dw	4095
  5856                           
  5857                           ;Config register IDLOC4 @ 0x200008
  5858                           ;	unspecified, using default values
  5859   200008                     	org	2097160
  5860   200008  0FFF               	dw	4095
  5861                           
  5862                           ;Config register IDLOC5 @ 0x20000A
  5863                           ;	unspecified, using default values
  5864   20000A                     	org	2097162
  5865   20000A  0FFF               	dw	4095
  5866                           
  5867                           ;Config register IDLOC6 @ 0x20000C
  5868                           ;	unspecified, using default values
  5869   20000C                     	org	2097164
  5870   20000C  0FFF               	dw	4095
  5871                           
  5872                           ;Config register IDLOC7 @ 0x20000E
  5873                           ;	unspecified, using default values
  5874   20000E                     	org	2097166
  5875   20000E  0FFF               	dw	4095
  5876                           
  5877                           ;Config register IDLOC8 @ 0x200010
  5878                           ;	unspecified, using default values
  5879   200010                     	org	2097168
  5880   200010  0FFF               	dw	4095
  5881                           
  5882                           ;Config register IDLOC9 @ 0x200012
  5883                           ;	unspecified, using default values
  5884   200012                     	org	2097170
  5885   200012  0FFF               	dw	4095
  5886                           
  5887                           ;Config register IDLOC10 @ 0x200014
  5888                           ;	unspecified, using default values
  5889   200014                     	org	2097172
  5890   200014  0FFF               	dw	4095
  5891                           
  5892                           ;Config register IDLOC11 @ 0x200016
  5893                           ;	unspecified, using default values
  5894   200016                     	org	2097174
  5895   200016  0FFF               	dw	4095
  5896                           
  5897                           ;Config register IDLOC12 @ 0x200018
  5898                           ;	unspecified, using default values
  5899   200018                     	org	2097176
  5900   200018  0FFF               	dw	4095
  5901                           
  5902                           ;Config register IDLOC13 @ 0x20001A
  5903                           ;	unspecified, using default values
  5904   20001A                     	org	2097178
  5905   20001A  0FFF               	dw	4095
  5906                           
  5907                           ;Config register IDLOC14 @ 0x20001C
  5908                           ;	unspecified, using default values
  5909   20001C                     	org	2097180
  5910   20001C  0FFF               	dw	4095
  5911                           
  5912                           ;Config register IDLOC15 @ 0x20001E
  5913                           ;	unspecified, using default values
  5914   20001E                     	org	2097182
  5915   20001E  0FFF               	dw	4095
  5916                           
  5917                           ;Config register IDLOC16 @ 0x200020
  5918                           ;	unspecified, using default values
  5919   200020                     	org	2097184
  5920   200020  0FFF               	dw	4095
  5921                           
  5922                           ;Config register IDLOC17 @ 0x200022
  5923                           ;	unspecified, using default values
  5924   200022                     	org	2097186
  5925   200022  0FFF               	dw	4095
  5926                           
  5927                           ;Config register IDLOC18 @ 0x200024
  5928                           ;	unspecified, using default values
  5929   200024                     	org	2097188
  5930   200024  0FFF               	dw	4095
  5931                           
  5932                           ;Config register IDLOC19 @ 0x200026
  5933                           ;	unspecified, using default values
  5934   200026                     	org	2097190
  5935   200026  0FFF               	dw	4095
  5936                           
  5937                           ;Config register IDLOC20 @ 0x200028
  5938                           ;	unspecified, using default values
  5939   200028                     	org	2097192
  5940   200028  0FFF               	dw	4095
  5941                           
  5942                           ;Config register IDLOC21 @ 0x20002A
  5943                           ;	unspecified, using default values
  5944   20002A                     	org	2097194
  5945   20002A  0FFF               	dw	4095
  5946                           
  5947                           ;Config register IDLOC22 @ 0x20002C
  5948                           ;	unspecified, using default values
  5949   20002C                     	org	2097196
  5950   20002C  0FFF               	dw	4095
  5951                           
  5952                           ;Config register IDLOC23 @ 0x20002E
  5953                           ;	unspecified, using default values
  5954   20002E                     	org	2097198
  5955   20002E  0FFF               	dw	4095
  5956                           
  5957                           ;Config register IDLOC24 @ 0x200030
  5958                           ;	unspecified, using default values
  5959   200030                     	org	2097200
  5960   200030  0FFF               	dw	4095
  5961                           
  5962                           ;Config register IDLOC25 @ 0x200032
  5963                           ;	unspecified, using default values
  5964   200032                     	org	2097202
  5965   200032  0FFF               	dw	4095
  5966                           
  5967                           ;Config register IDLOC26 @ 0x200034
  5968                           ;	unspecified, using default values
  5969   200034                     	org	2097204
  5970   200034  0FFF               	dw	4095
  5971                           
  5972                           ;Config register IDLOC27 @ 0x200036
  5973                           ;	unspecified, using default values
  5974   200036                     	org	2097206
  5975   200036  0FFF               	dw	4095
  5976                           
  5977                           ;Config register IDLOC28 @ 0x200038
  5978                           ;	unspecified, using default values
  5979   200038                     	org	2097208
  5980   200038  0FFF               	dw	4095
  5981                           
  5982                           ;Config register IDLOC29 @ 0x20003A
  5983                           ;	unspecified, using default values
  5984   20003A                     	org	2097210
  5985   20003A  0FFF               	dw	4095
  5986                           
  5987                           ;Config register IDLOC30 @ 0x20003C
  5988                           ;	unspecified, using default values
  5989   20003C                     	org	2097212
  5990   20003C  0FFF               	dw	4095
  5991                           
  5992                           ;Config register IDLOC31 @ 0x20003E
  5993                           ;	unspecified, using default values
  5994   20003E                     	org	2097214
  5995   20003E  0FFF               	dw	4095
  5996                           
  5997                           	psect	config
  5998                           
  5999                           ;Config register CONFIG1 @ 0x300000
  6000                           ;	External Oscillator Selection
  6001                           ;	FEXTOSC = OFF, Oscillator not enabled
  6002                           ;	Reset Oscillator Selection
  6003                           ;	RSTOSC = HFINTOSC_1MHZ, HFINTOSC with HFFRQ = 4 MHz and CDIV = 4:1
  6004   300000                     	org	3145728
  6005   300000  EC                 	db	236
  6006                           
  6007                           ;Config register CONFIG2 @ 0x300001
  6008                           ;	Clock out Enable bit
  6009                           ;	CLKOUTEN = OFF, CLKOUT function is disabled
  6010                           ;	PRLOCKED One-Way Set Enable bit
  6011                           ;	PR1WAY = ON, PRLOCKED bit can be cleared and set only once
  6012                           ;	Clock Switch Enable bit
  6013                           ;	CSWEN = ON, Writing to NOSC and NDIV is allowed
  6014                           ;	Fail-Safe Clock Monitor Enable bit
  6015                           ;	FCMEN = ON, Fail-Safe Clock Monitor enabled
  6016                           ;	Fail-Safe Clock Monitor - Primary XTAL Enable bit
  6017                           ;	FCMENP = ON, Fail-Safe Clock Monitor enabled; timer will flag FSCMP bit and OSFIF inte
      +                          rrupt on EXTOSC failure.
  6018                           ;	Fail-Safe Clock Monitor - Secondary XTAL Enable bit
  6019                           ;	FCMENS = ON, Fail-Safe Clock Monitor enabled; timer will flag FSCMP bit and OSFIF inte
      +                          rrupt on SOSC failure.
  6020   300001                     	org	3145729
  6021   300001  FF                 	db	255
  6022                           
  6023                           ;Config register CONFIG3 @ 0x300002
  6024                           ;	MCLR Enable bit
  6025                           ;	MCLRE = EXTMCLR, If LVP = 0, MCLR pin is MCLR; If LVP = 1, RE3 pin function is MCLR
  6026                           ;	Power-up timer selection bits
  6027                           ;	PWRTS = PWRT_OFF, PWRT is disabled
  6028                           ;	Multi-vector enable bit
  6029                           ;	MVECEN = ON, Multi-vector enabled, Vector table used for interrupts
  6030                           ;	IVTLOCK bit One-way set enable bit
  6031                           ;	IVT1WAY = ON, IVTLOCKED bit can be cleared and set only once
  6032                           ;	Low Power BOR Enable bit
  6033                           ;	LPBOREN = OFF, Low-Power BOR disabled
  6034                           ;	Brown-out Reset Enable bits
  6035                           ;	BOREN = SBORDIS, Brown-out Reset enabled , SBOREN bit is ignored
  6036   300002                     	org	3145730
  6037   300002  FF                 	db	255
  6038                           
  6039                           ;Config register CONFIG4 @ 0x300003
  6040                           ;	Brown-out Reset Voltage Selection bits
  6041                           ;	BORV = VBOR_1P9, Brown-out Reset Voltage (VBOR) set to 1.9V
  6042                           ;	ZCD Disable bit
  6043                           ;	ZCD = OFF, ZCD module is disabled. ZCD can be enabled by setting the ZCDSEN bit of ZCD
      +                          CON
  6044                           ;	PPSLOCK bit One-Way Set Enable bit
  6045                           ;	PPS1WAY = ON, PPSLOCKED bit can be cleared and set only once; PPS registers remain loc
      +                          ked after one clear/set cycle
  6046                           ;	Stack Full/Underflow Reset Enable bit
  6047                           ;	STVREN = ON, Stack full/underflow will cause Reset
  6048                           ;	Low Voltage Programming Enable bit
  6049                           ;	LVP = ON, Low voltage programming enabled. MCLR/VPP pin function is MCLR. MCLRE config
      +                          uration bit is ignored
  6050                           ;	Extended Instruction Set Enable bit
  6051                           ;	XINST = OFF, Extended Instruction Set and Indexed Addressing Mode disabled
  6052   300003                     	org	3145731
  6053   300003  FF                 	db	255
  6054                           
  6055                           ;Config register CONFIG5 @ 0x300004
  6056                           ;	WDT Period selection bits
  6057                           ;	WDTCPS = WDTCPS_31, Divider ratio 1:65536; software control of WDTPS
  6058                           ;	WDT operating mode
  6059                           ;	WDTE = OFF, WDT Disabled; SWDTEN is ignored
  6060   300004                     	org	3145732
  6061   300004  9F                 	db	159
  6062                           
  6063                           ;Config register CONFIG6 @ 0x300005
  6064                           ;	WDT Window Select bits
  6065                           ;	WDTCWS = WDTCWS_7, window always open (100%); software control; keyed access not requi
      +                          red
  6066                           ;	WDT input clock selector
  6067                           ;	WDTCCS = SC, Software Control
  6068   300005                     	org	3145733
  6069   300005  FF                 	db	255
  6070                           
  6071                           ;Config register CONFIG7 @ 0x300006
  6072                           ;	Boot Block Size selection bits
  6073                           ;	BBSIZE = BBSIZE_512, Boot Block size is 512 words
  6074                           ;	Boot Block enable bit
  6075                           ;	BBEN = OFF, Boot block disabled
  6076                           ;	Storage Area Flash enable bit
  6077                           ;	SAFEN = OFF, SAF disabled
  6078                           ;	Background Debugger
  6079                           ;	DEBUG = OFF, Background Debugger disabled
  6080   300006                     	org	3145734
  6081   300006  FF                 	db	255
  6082                           
  6083                           ;Config register CONFIG8 @ 0x300007
  6084                           ;	Boot Block Write Protection bit
  6085                           ;	WRTB = OFF, Boot Block not Write protected
  6086                           ;	Configuration Register Write Protection bit
  6087                           ;	WRTC = OFF, Configuration registers not Write protected
  6088                           ;	Data EEPROM Write Protection bit
  6089                           ;	WRTD = OFF, Data EEPROM not Write protected
  6090                           ;	SAF Write protection bit
  6091                           ;	WRTSAF = OFF, SAF not Write Protected
  6092                           ;	Application Block write protection bit
  6093                           ;	WRTAPP = OFF, Application Block not write protected
  6094   300007                     	org	3145735
  6095   300007  FF                 	db	255
  6096                           
  6097                           ;Config register CONFIG9 @ 0x300008
  6098                           ;	PFM and Data EEPROM Code Protection bit
  6099                           ;	CP = OFF, PFM and Data EEPROM code protection disabled
  6100   300008                     	org	3145736
  6101   300008  FF                 	db	255
  6102                           
  6103                           ; Padding undefined space
  6104   300009                     	org	3145737
  6105   300009  FF                 	db	255
  6106                           tosu	equ	0x4FF
  6107                           tosh	equ	0x4FE
  6108                           tosl	equ	0x4FD
  6109                           stkptr	equ	0x4FC
  6110                           pclatu	equ	0x4FB
  6111                           pclath	equ	0x4FA
  6112                           pcl	equ	0x4F9
  6113                           tblptru	equ	0x4F8
  6114                           tblptrh	equ	0x4F7
  6115                           tblptrl	equ	0x4F6
  6116                           tablat	equ	0x4F5
  6117                           prodh	equ	0x4F4
  6118                           prodl	equ	0x4F3
  6119                           indf0	equ	0x4EF
  6120                           postinc0	equ	0x4EE
  6121                           postdec0	equ	0x4ED
  6122                           preinc0	equ	0x4EC
  6123                           plusw0	equ	0x4EB
  6124                           fsr0h	equ	0x4EA
  6125                           fsr0l	equ	0x4E9
  6126                           wreg	equ	0x4E8
  6127                           indf1	equ	0x4E7
  6128                           postinc1	equ	0x4E6
  6129                           postdec1	equ	0x4E5
  6130                           preinc1	equ	0x4E4
  6131                           plusw1	equ	0x4E3
  6132                           fsr1h	equ	0x4E2
  6133                           fsr1l	equ	0x4E1
  6134                           bsr	equ	0x4E0
  6135                           indf2	equ	0x4DF
  6136                           postinc2	equ	0x4DE
  6137                           postdec2	equ	0x4DD
  6138                           preinc2	equ	0x4DC
  6139                           plusw2	equ	0x4DB
  6140                           fsr2h	equ	0x4DA
  6141                           fsr2l	equ	0x4D9
  6142                           status	equ	0x4D8

Data Sizes:
    Strings     20
    Constant    60
    Data        3
    BSS         71
    Persistent  4
    Stack       0

Auto Spaces:
    Space          Size  Autos    Used
    COMRAM           95     72      86
    BANK5           160      8      72
    BANK6           256      0       0
    BANK7           256      0       0
    BANK8           256      0       0
    BANK9           256      0       0
    BANK10          256      0       0
    BANK11          256      0       0
    BANK12          256      0       0
    BANK13          256      0       0
    BANK14          256      0       0
    BANK15          256      0       0
    BANK16          256      0       0
    BANK17          256      0       0
    BANK18          256      0       0
    BANK19          256      0       0
    BANK20          256      0       0

Pointer List with Targets:

    S201$20$0	PTR FTN()void  size(2) Largest target is 1
		 -> UART1_DefaultFramingErrorCallback(), 

    S201$21$0	PTR FTN()void  size(2) Largest target is 1
		 -> UART1_DefaultOverrunErrorCallback(), 

    S201$22$0	PTR FTN()void  size(2) Largest target is 1
		 -> UART1_DefaultParityErrorCallback(), 

    S1093$4$0	PTR FTN()void  size(2) Largest target is 1
		 -> Timer0_DefaultOverflowCallback(), 

    fputs@s	PTR const unsigned char  size(2) Largest target is 32
		 -> dbuf(BANK5[32]), 

    fputs@fp	PTR struct _IO_FILE size(2) Largest target is 0
		 -> NULL(NULL[0]), 

    S1829$source	PTR const unsigned char  size(2) Largest target is 0

    fputc@fp...source	PTR const unsigned char  size(2) Largest target is 0

    S1829$buffer	PTR unsigned char  size(2) Largest target is 0

    fputc@fp...buffer	PTR unsigned char  size(2) Largest target is 0

    fputc@fp	PTR struct _IO_FILE size(2) Largest target is 0
		 -> NULL(NULL[0]), 

    vfprintf@ap	PTR PTR void  size(2) Largest target is 2
		 -> printf@ap(BANK5[2]), 

    vfprintf@fp	PTR struct _IO_FILE size(2) Largest target is 0
		 -> NULL(NULL[0]), 

    vfprintf@fmt	PTR const unsigned char  size(2) Largest target is 11
		 -> STR_2(CODE[9]), STR_1(CODE[11]), 

    vfprintf@cfmt	PTR unsigned char  size(2) Largest target is 11
		 -> STR_2(CODE[9]), STR_1(CODE[11]), 

    vfpfcnvrt@fp	PTR struct _IO_FILE size(2) Largest target is 0
		 -> NULL(NULL[0]), 

    vfpfcnvrt@ap	PTR PTR void  size(2) Largest target is 2
		 -> printf@ap(BANK5[2]), 

    vfpfcnvrt@cp	PTR unsigned char  size(2) Largest target is 11
		 -> STR_2(CODE[9]), STR_1(CODE[11]), 

    vfpfcnvrt@fmt	PTR PTR unsigned char  size(2) Largest target is 2
		 -> vfprintf@cfmt(COMRAM[2]), 

    S1868$vp	PTR void  size(2) Largest target is 0

    convarg.vp	PTR void  size(2) Largest target is 0

    utoa@fp	PTR struct _IO_FILE size(2) Largest target is 0
		 -> NULL(NULL[0]), 

    dtoa@fp	PTR struct _IO_FILE size(2) Largest target is 0
		 -> NULL(NULL[0]), 

    pad@buf	PTR unsigned char  size(2) Largest target is 32
		 -> dbuf(BANK5[32]), 

    pad@fp	PTR struct _IO_FILE size(2) Largest target is 0
		 -> NULL(NULL[0]), 

    printf@fmt	PTR const unsigned char  size(2) Largest target is 11
		 -> STR_2(CODE[9]), STR_1(CODE[11]), 

    printf@ap	PTR void [1] size(2) Largest target is 2
		 -> ?_printf(BANK5[2]), 

    DMA1_SetSCNTIInterruptHandler@InterruptHandler	PTR FTN()void  size(2) Largest target is 1
		 -> DMA1_DefaultInterruptHandler(), DMA_ISR(), 

    DMA1_SCNTI_InterruptHandler	PTR FTN()void  size(2) Largest target is 1
		 -> DMA1_DefaultInterruptHandler(), NULL(), DMA_ISR(), 

    Timer0_OverflowCallbackRegister@CallbackHandler	PTR FTN()void  size(2) Largest target is 1
		 -> Timer0_DefaultOverflowCallback(), 

    Timer0_OverflowCallback	PTR FTN()void  size(2) Largest target is 1
		 -> Timer0_DefaultOverflowCallback(), NULL(), 

    S1093TMR_INTERFACE$Tasks	PTR FTN()void  size(2) Largest target is 1
		 -> Timer0_Tasks(), 

    Timer0.Tasks	PTR FTN()void  size(2) Largest target is 1
		 -> Timer0_Tasks(), 

    S1093TMR_INTERFACE$TimeoutCallbackRegister	PTR FTN(PTR FTN()void ,)void  size(2) Largest target is 1
		 -> Timer0_OverflowCallbackRegister(), 

    Timer0.TimeoutCallbackRegister	PTR FTN(PTR FTN()void ,)void  size(2) Largest target is 1
		 -> Timer0_OverflowCallbackRegister(), 

    S1093TMR_INTERFACE$PeriodCountSet	PTR FTN(unsigned int ,)void  size(2) Largest target is 1
		 -> Timer0_Write(), 

    Timer0.PeriodCountSet	PTR FTN(unsigned int ,)void  size(2) Largest target is 1
		 -> Timer0_Write(), 

    S1093TMR_INTERFACE$Stop	PTR FTN()void  size(2) Largest target is 1
		 -> Timer0_Stop(), 

    Timer0.Stop	PTR FTN()void  size(2) Largest target is 1
		 -> Timer0_Stop(), 

    S1093TMR_INTERFACE$Start	PTR FTN()void  size(2) Largest target is 1
		 -> Timer0_Start(), 

    Timer0.Start	PTR FTN()void  size(2) Largest target is 1
		 -> Timer0_Start(), 

    S1093TMR_INTERFACE$Initialize	PTR FTN()void  size(2) Largest target is 1
		 -> Timer0_Initialize(), 

    Timer0.Initialize	PTR FTN()void  size(2) Largest target is 1
		 -> Timer0_Initialize(), 

    INT2_SetInterruptHandler@InterruptHandler	PTR FTN()void  size(2) Largest target is 1
		 -> INT2_DefaultInterruptHandler(), 

    INT2_InterruptHandler	PTR FTN()void  size(2) Largest target is 1
		 -> INT2_DefaultInterruptHandler(), NULL(), 

    INT1_SetInterruptHandler@InterruptHandler	PTR FTN()void  size(2) Largest target is 1
		 -> INT1_DefaultInterruptHandler(), 

    INT1_InterruptHandler	PTR FTN()void  size(2) Largest target is 1
		 -> INT1_DefaultInterruptHandler(), NULL(), 

    INT0_SetInterruptHandler@InterruptHandler	PTR FTN()void  size(2) Largest target is 1
		 -> INT0_DefaultInterruptHandler(), 

    INT0_InterruptHandler	PTR FTN()void  size(2) Largest target is 1
		 -> INT0_DefaultInterruptHandler(), NULL(), 

    UART1_ParityErrorHandler	PTR FTN()void  size(2) Largest target is 1
		 -> UART1_DefaultParityErrorCallback(), NULL(), 

    UART1_ParityErrorCallbackRegister@callbackHandler	PTR FTN()void  size(2) Largest target is 1
		 -> UART1_DefaultParityErrorCallback(), 

    UART1_OverrunErrorCallbackRegister@callbackHandler	PTR FTN()void  size(2) Largest target is 1
		 -> UART1_DefaultOverrunErrorCallback(), 

    UART1_FramingErrorCallbackRegister@callbackHandler	PTR FTN()void  size(2) Largest target is 1
		 -> UART1_DefaultFramingErrorCallback(), 

    UART1_OverrunErrorHandler	PTR FTN()void  size(2) Largest target is 1
		 -> UART1_DefaultOverrunErrorCallback(), NULL(), 

    UART1_FramingErrorHandler	PTR FTN()void  size(2) Largest target is 1
		 -> UART1_DefaultFramingErrorCallback(), NULL(), 

    S201$EventCallbackRegister	PTR FTN(PTR FTN()void ,)void  size(2) Largest target is 1
		 -> NULL(), 

    UART1.EventCallbackRegister	PTR FTN(PTR FTN()void ,)void  size(2) Largest target is 1
		 -> NULL(), 

    S201$ParityErrorCallbackRegister	PTR FTN(PTR FTN()void ,)void  size(2) Largest target is 1
		 -> UART1_ParityErrorCallbackRegister(), 

    UART1.ParityErrorCallbackRegister	PTR FTN(PTR FTN()void ,)void  size(2) Largest target is 1
		 -> UART1_ParityErrorCallbackRegister(), 

    S201$OverrunErrorCallbackRegister	PTR FTN(PTR FTN()void ,)void  size(2) Largest target is 1
		 -> UART1_OverrunErrorCallbackRegister(), 

    UART1.OverrunErrorCallbackRegister	PTR FTN(PTR FTN()void ,)void  size(2) Largest target is 1
		 -> UART1_OverrunErrorCallbackRegister(), 

    S201$FramingErrorCallbackRegister	PTR FTN(PTR FTN()void ,)void  size(2) Largest target is 1
		 -> UART1_FramingErrorCallbackRegister(), 

    UART1.FramingErrorCallbackRegister	PTR FTN(PTR FTN()void ,)void  size(2) Largest target is 1
		 -> UART1_FramingErrorCallbackRegister(), 

    S201$TxCollisionCallbackRegister	PTR FTN(PTR FTN()void ,)void  size(2) Largest target is 1
		 -> NULL(), 

    UART1.TxCollisionCallbackRegister	PTR FTN(PTR FTN()void ,)void  size(2) Largest target is 1
		 -> NULL(), 

    S201$RxCompleteCallbackRegister	PTR FTN(PTR FTN()void ,)void  size(2) Largest target is 1
		 -> NULL(), 

    UART1.RxCompleteCallbackRegister	PTR FTN(PTR FTN()void ,)void  size(2) Largest target is 1
		 -> NULL(), 

    S201$TxCompleteCallbackRegister	PTR FTN(PTR FTN()void ,)void  size(2) Largest target is 1
		 -> NULL(), 

    UART1.TxCompleteCallbackRegister	PTR FTN(PTR FTN()void ,)void  size(2) Largest target is 1
		 -> NULL(), 

    S201$ErrorGet	PTR FTN()unsigned int  size(2) Largest target is 2
		 -> UART1_ErrorGet(), 

    UART1.ErrorGet	PTR FTN()unsigned int  size(2) Largest target is 2
		 -> UART1_ErrorGet(), 

    S201$BaudRateGet	PTR FTN()unsigned long  size(2) Largest target is 1
		 -> NULL(), 

    UART1.BaudRateGet	PTR FTN()unsigned long  size(2) Largest target is 1
		 -> NULL(), 

    S201$BaudRateSet	PTR FTN(unsigned long ,)void  size(2) Largest target is 1
		 -> NULL(), 

    UART1.BaudRateSet	PTR FTN(unsigned long ,)void  size(2) Largest target is 1
		 -> NULL(), 

    S201$BRGCountGet	PTR FTN()unsigned long  size(2) Largest target is 1
		 -> NULL(), 

    UART1.BRGCountGet	PTR FTN()unsigned long  size(2) Largest target is 1
		 -> NULL(), 

    S201$BRGCountSet	PTR FTN(unsigned long ,)void  size(2) Largest target is 1
		 -> NULL(), 

    UART1.BRGCountSet	PTR FTN(unsigned long ,)void  size(2) Largest target is 1
		 -> NULL(), 

    S201$AutoBaudEventEnableGet	PTR FTN()_Bool  size(2) Largest target is 1
		 -> NULL(), 

    UART1.AutoBaudEventEnableGet	PTR FTN()_Bool  size(2) Largest target is 1
		 -> NULL(), 

    S201$AutoBaudQuery	PTR FTN()_Bool  size(2) Largest target is 1
		 -> UART1_AutoBaudQuery(), 

    UART1.AutoBaudQuery	PTR FTN()_Bool  size(2) Largest target is 1
		 -> UART1_AutoBaudQuery(), 

    S201$AutoBaudSet	PTR FTN(_Bool ,)void  size(2) Largest target is 1
		 -> UART1_AutoBaudSet(), 

    UART1.AutoBaudSet	PTR FTN(_Bool ,)void  size(2) Largest target is 1
		 -> UART1_AutoBaudSet(), 

    S201$TransmitDisable	PTR FTN()void  size(2) Largest target is 1
		 -> UART1_TransmitDisable(), 

    UART1.TransmitDisable	PTR FTN()void  size(2) Largest target is 1
		 -> UART1_TransmitDisable(), 

    S201$TransmitEnable	PTR FTN()void  size(2) Largest target is 1
		 -> UART1_TransmitEnable(), 

    UART1.TransmitEnable	PTR FTN()void  size(2) Largest target is 1
		 -> UART1_TransmitEnable(), 

    S201$IsTxDone	PTR FTN()_Bool  size(2) Largest target is 1
		 -> UART1_IsTxDone(), 

    UART1.IsTxDone	PTR FTN()_Bool  size(2) Largest target is 1
		 -> UART1_IsTxDone(), 

    S201$IsTxReady	PTR FTN()_Bool  size(2) Largest target is 1
		 -> UART1_IsTxReady(), 

    UART1.IsTxReady	PTR FTN()_Bool  size(2) Largest target is 1
		 -> UART1_IsTxReady(), 

    S201$IsRxReady	PTR FTN()_Bool  size(2) Largest target is 1
		 -> UART1_IsRxReady(), 

    UART1.IsRxReady	PTR FTN()_Bool  size(2) Largest target is 1
		 -> UART1_IsRxReady(), 

    S201$Write	PTR FTN(unsigned char ,)void  size(2) Largest target is 1
		 -> UART1_Write(), 

    UART1.Write	PTR FTN(unsigned char ,)void  size(2) Largest target is 1
		 -> UART1_Write(), 

    S201$Read	PTR FTN()unsigned char  size(2) Largest target is 1
		 -> UART1_Read(), 

    UART1.Read	PTR FTN()unsigned char  size(2) Largest target is 1
		 -> UART1_Read(), 

    S201$Deinitialize	PTR FTN()void  size(2) Largest target is 1
		 -> UART1_Deinitialize(), 

    UART1.Deinitialize	PTR FTN()void  size(2) Largest target is 1
		 -> UART1_Deinitialize(), 

    S201$Initialize	PTR FTN()void  size(2) Largest target is 1
		 -> UART1_Initialize(), 

    UART1.Initialize	PTR FTN()void  size(2) Largest target is 1
		 -> UART1_Initialize(), 

    ptr_cnt	PTR unsigned short  size(2) Largest target is 5375
		 -> RAM(DATA[5375]), 


Critical Paths under _main in COMRAM

    _printf->_vfprintf
    _vfprintf->_vfpfcnvrt
    _vfpfcnvrt->_dtoa
    _utoa->_pad
    _dtoa->_pad
    _pad->_fputs
    _fputs->_fputc
    _fputc->_putch
    _putch->_UART1_IsTxReady
    _putch->_UART1_Write
    _abs->___awmod
    _SYSTEM_Initialize->_Timer0_Initialize
    _UART1_Initialize->_UART1_FramingErrorCallbackRegister
    _UART1_Initialize->_UART1_OverrunErrorCallbackRegister
    _UART1_Initialize->_UART1_ParityErrorCallbackRegister
    _Timer0_Initialize->_Timer0_OverflowCallbackRegister
    _INTERRUPT_Initialize->_INT0_SetInterruptHandler
    _INTERRUPT_Initialize->_INT1_SetInterruptHandler
    _INTERRUPT_Initialize->_INT2_SetInterruptHandler
    _DMA1_Initialize->_DMA1_SetSCNTIInterruptHandler

Critical Paths under _Default_ISR in COMRAM

    None.

Critical Paths under _IOC_ISR in COMRAM

    None.

Critical Paths under _INT0_ISR in COMRAM

    None.

Critical Paths under _INT1_ISR in COMRAM

    None.

Critical Paths under _INT2_ISR in COMRAM

    None.

Critical Paths under _DMA1_DMASCNTI_ISR in COMRAM

    None.

Critical Paths under _main in BANK5

    _main->_printf
    _covert_channel_logic->_printf

Critical Paths under _Default_ISR in BANK5

    None.

Critical Paths under _IOC_ISR in BANK5

    None.

Critical Paths under _INT0_ISR in BANK5

    None.

Critical Paths under _INT1_ISR in BANK5

    None.

Critical Paths under _INT2_ISR in BANK5

    None.

Critical Paths under _DMA1_DMASCNTI_ISR in BANK5

    None.

Critical Paths under _main in BANK6

    None.

Critical Paths under _Default_ISR in BANK6

    None.

Critical Paths under _IOC_ISR in BANK6

    None.

Critical Paths under _INT0_ISR in BANK6

    None.

Critical Paths under _INT1_ISR in BANK6

    None.

Critical Paths under _INT2_ISR in BANK6

    None.

Critical Paths under _DMA1_DMASCNTI_ISR in BANK6

    None.

Critical Paths under _main in BANK7

    None.

Critical Paths under _Default_ISR in BANK7

    None.

Critical Paths under _IOC_ISR in BANK7

    None.

Critical Paths under _INT0_ISR in BANK7

    None.

Critical Paths under _INT1_ISR in BANK7

    None.

Critical Paths under _INT2_ISR in BANK7

    None.

Critical Paths under _DMA1_DMASCNTI_ISR in BANK7

    None.

Critical Paths under _main in BANK8

    None.

Critical Paths under _Default_ISR in BANK8

    None.

Critical Paths under _IOC_ISR in BANK8

    None.

Critical Paths under _INT0_ISR in BANK8

    None.

Critical Paths under _INT1_ISR in BANK8

    None.

Critical Paths under _INT2_ISR in BANK8

    None.

Critical Paths under _DMA1_DMASCNTI_ISR in BANK8

    None.

Critical Paths under _main in BANK9

    None.

Critical Paths under _Default_ISR in BANK9

    None.

Critical Paths under _IOC_ISR in BANK9

    None.

Critical Paths under _INT0_ISR in BANK9

    None.

Critical Paths under _INT1_ISR in BANK9

    None.

Critical Paths under _INT2_ISR in BANK9

    None.

Critical Paths under _DMA1_DMASCNTI_ISR in BANK9

    None.

Critical Paths under _main in BANK10

    None.

Critical Paths under _Default_ISR in BANK10

    None.

Critical Paths under _IOC_ISR in BANK10

    None.

Critical Paths under _INT0_ISR in BANK10

    None.

Critical Paths under _INT1_ISR in BANK10

    None.

Critical Paths under _INT2_ISR in BANK10

    None.

Critical Paths under _DMA1_DMASCNTI_ISR in BANK10

    None.

Critical Paths under _main in BANK11

    None.

Critical Paths under _Default_ISR in BANK11

    None.

Critical Paths under _IOC_ISR in BANK11

    None.

Critical Paths under _INT0_ISR in BANK11

    None.

Critical Paths under _INT1_ISR in BANK11

    None.

Critical Paths under _INT2_ISR in BANK11

    None.

Critical Paths under _DMA1_DMASCNTI_ISR in BANK11

    None.

Critical Paths under _main in BANK12

    None.

Critical Paths under _Default_ISR in BANK12

    None.

Critical Paths under _IOC_ISR in BANK12

    None.

Critical Paths under _INT0_ISR in BANK12

    None.

Critical Paths under _INT1_ISR in BANK12

    None.

Critical Paths under _INT2_ISR in BANK12

    None.

Critical Paths under _DMA1_DMASCNTI_ISR in BANK12

    None.

Critical Paths under _main in BANK13

    None.

Critical Paths under _Default_ISR in BANK13

    None.

Critical Paths under _IOC_ISR in BANK13

    None.

Critical Paths under _INT0_ISR in BANK13

    None.

Critical Paths under _INT1_ISR in BANK13

    None.

Critical Paths under _INT2_ISR in BANK13

    None.

Critical Paths under _DMA1_DMASCNTI_ISR in BANK13

    None.

Critical Paths under _main in BANK14

    None.

Critical Paths under _Default_ISR in BANK14

    None.

Critical Paths under _IOC_ISR in BANK14

    None.

Critical Paths under _INT0_ISR in BANK14

    None.

Critical Paths under _INT1_ISR in BANK14

    None.

Critical Paths under _INT2_ISR in BANK14

    None.

Critical Paths under _DMA1_DMASCNTI_ISR in BANK14

    None.

Critical Paths under _main in BANK15

    None.

Critical Paths under _Default_ISR in BANK15

    None.

Critical Paths under _IOC_ISR in BANK15

    None.

Critical Paths under _INT0_ISR in BANK15

    None.

Critical Paths under _INT1_ISR in BANK15

    None.

Critical Paths under _INT2_ISR in BANK15

    None.

Critical Paths under _DMA1_DMASCNTI_ISR in BANK15

    None.

Critical Paths under _main in BANK16

    None.

Critical Paths under _Default_ISR in BANK16

    None.

Critical Paths under _IOC_ISR in BANK16

    None.

Critical Paths under _INT0_ISR in BANK16

    None.

Critical Paths under _INT1_ISR in BANK16

    None.

Critical Paths under _INT2_ISR in BANK16

    None.

Critical Paths under _DMA1_DMASCNTI_ISR in BANK16

    None.

Critical Paths under _main in BANK17

    None.

Critical Paths under _Default_ISR in BANK17

    None.

Critical Paths under _IOC_ISR in BANK17

    None.

Critical Paths under _INT0_ISR in BANK17

    None.

Critical Paths under _INT1_ISR in BANK17

    None.

Critical Paths under _INT2_ISR in BANK17

    None.

Critical Paths under _DMA1_DMASCNTI_ISR in BANK17

    None.

Critical Paths under _main in BANK18

    None.

Critical Paths under _Default_ISR in BANK18

    None.

Critical Paths under _IOC_ISR in BANK18

    None.

Critical Paths under _INT0_ISR in BANK18

    None.

Critical Paths under _INT1_ISR in BANK18

    None.

Critical Paths under _INT2_ISR in BANK18

    None.

Critical Paths under _DMA1_DMASCNTI_ISR in BANK18

    None.

Critical Paths under _main in BANK19

    None.

Critical Paths under _Default_ISR in BANK19

    None.

Critical Paths under _IOC_ISR in BANK19

    None.

Critical Paths under _INT0_ISR in BANK19

    None.

Critical Paths under _INT1_ISR in BANK19

    None.

Critical Paths under _INT2_ISR in BANK19

    None.

Critical Paths under _DMA1_DMASCNTI_ISR in BANK19

    None.

Critical Paths under _main in BANK20

    None.

Critical Paths under _Default_ISR in BANK20

    None.

Critical Paths under _IOC_ISR in BANK20

    None.

Critical Paths under _INT0_ISR in BANK20

    None.

Critical Paths under _INT1_ISR in BANK20

    None.

Critical Paths under _INT2_ISR in BANK20

    None.

Critical Paths under _DMA1_DMASCNTI_ISR in BANK20

    None.

Call Graph Tables:

 ---------------------------------------------------------------------------------
 (Depth) Function   	        Calls       Base Space   Used Autos Params    Refs
 ---------------------------------------------------------------------------------
 (0) _main                                                 0     0      0   25981
                  _SYSTEM_Initialize
                     _covert_channel
                             _printf
 ---------------------------------------------------------------------------------
 (1) _covert_channel                                       0     0      0   12828
      _DMA1_SetSCNTIInterruptHandler
                 _DMA1_StartTransfer
                     _config_DMA_M2M
               _covert_channel_logic
 ---------------------------------------------------------------------------------
 (2) _covert_channel_logic                                 0     0      0   12534
                 _DMA1_StartTransfer
                       _Timer0_Start
                       _Timer0_Write
                             _printf
                             _trojan
 ---------------------------------------------------------------------------------
 (3) _trojan                                               4     2      2     210
                                              8 COMRAM     4     2      2
 ---------------------------------------------------------------------------------
 (1) _printf                                              10     4      6   12204
                                              0 BANK5      8     2      6
                           _vfprintf
 ---------------------------------------------------------------------------------
 (2) _vfprintf                                             8     2      6   11937
                                             64 COMRAM     8     2      6
                          _vfpfcnvrt
 ---------------------------------------------------------------------------------
 (3) _vfpfcnvrt                                           19    13      6   11470
                                             50 COMRAM    14     8      6
                               _dtoa
                              _fputc
                               _utoa
 ---------------------------------------------------------------------------------
 (4) _utoa                                                10     6      4    4348
                                             37 COMRAM    10     6      4
                            ___lwdiv
                            ___lwmod
                                _pad
 ---------------------------------------------------------------------------------
 (5) ___lwmod                                              5     1      4     412
                                              8 COMRAM     5     1      4
 ---------------------------------------------------------------------------------
 (5) ___lwdiv                                              7     3      4     421
                                              8 COMRAM     7     3      4
 ---------------------------------------------------------------------------------
 (4) _dtoa                                                13     9      4    5236
                                             37 COMRAM    13     9      4
                            ___awdiv
                            ___awmod
                                _abs
                                _pad
 ---------------------------------------------------------------------------------
 (5) _pad                                                 11     5      6    3001
                                             26 COMRAM    11     5      6
                              _fputc
                              _fputs
 ---------------------------------------------------------------------------------
 (6) _fputs                                                7     3      4    1276
                                             19 COMRAM     7     3      4
                              _fputc
 ---------------------------------------------------------------------------------
 (7) _fputc                                                9     5      4     956
                                             10 COMRAM     9     5      4
                              _putch
 ---------------------------------------------------------------------------------
 (8) _putch                                                1     1      0      99
                                              9 COMRAM     1     1      0
                    _UART1_IsTxReady
                        _UART1_Write
 ---------------------------------------------------------------------------------
 (9) _UART1_Write                                          1     1      0      31
                                              8 COMRAM     1     1      0
 ---------------------------------------------------------------------------------
 (9) _UART1_IsTxReady                                      1     1      0      37
                                              8 COMRAM     1     1      0
 ---------------------------------------------------------------------------------
 (5) _abs                                                  4     2      2     183
                                             14 COMRAM     4     2      2
                            ___awmod (ARG)
 ---------------------------------------------------------------------------------
 (5) ___awmod                                              6     2      4     613
                                              8 COMRAM     6     2      4
 ---------------------------------------------------------------------------------
 (5) ___awdiv                                              8     4      4     625
                                              8 COMRAM     8     4      4
 ---------------------------------------------------------------------------------
 (3) _Timer0_Write                                         2     0      2     120
                                              8 COMRAM     2     0      2
 ---------------------------------------------------------------------------------
 (3) _Timer0_Start                                         0     0      0       0
 ---------------------------------------------------------------------------------
 (3) _DMA1_StartTransfer                                   0     0      0       0
 ---------------------------------------------------------------------------------
 (2) _config_DMA_M2M                                       2     0      2     120
                                              8 COMRAM     2     0      2
 ---------------------------------------------------------------------------------
 (1) _SYSTEM_Initialize                                    0     0      0     949
                   _CLOCK_Initialize
                     _CPU_Initialize
                    _DMA1_Initialize
               _INTERRUPT_Initialize
             _PIN_MANAGER_Initialize
           _SystemArbiter_Initialize
                  _Timer0_Initialize
                   _UART1_Initialize
                   _UART2_Initialize
 ---------------------------------------------------------------------------------
 (2) _UART2_Initialize                                     0     0      0       0
 ---------------------------------------------------------------------------------
 (2) _UART1_Initialize                                     0     0      0     360
 _UART1_FramingErrorCallbackRegister
 _UART1_OverrunErrorCallbackRegister
  _UART1_ParityErrorCallbackRegister
 ---------------------------------------------------------------------------------
 (3) _UART1_ParityErrorCallbackRegister                    2     0      2     120
                                              8 COMRAM     2     0      2
 ---------------------------------------------------------------------------------
 (3) _UART1_OverrunErrorCallbackRegister                   2     0      2     120
                                              8 COMRAM     2     0      2
 ---------------------------------------------------------------------------------
 (3) _UART1_FramingErrorCallbackRegister                   2     0      2     120
                                              8 COMRAM     2     0      2
 ---------------------------------------------------------------------------------
 (2) _Timer0_Initialize                                    2     2      0      98
                                             10 COMRAM     2     2      0
    _Timer0_OverflowCallbackRegister
 ---------------------------------------------------------------------------------
 (3) _Timer0_OverflowCallbackRegister                      2     0      2      98
                                              8 COMRAM     2     0      2
 ---------------------------------------------------------------------------------
 (2) _SystemArbiter_Initialize                             0     0      0       0
 ---------------------------------------------------------------------------------
 (2) _PIN_MANAGER_Initialize                               0     0      0       0
 ---------------------------------------------------------------------------------
 (2) _INTERRUPT_Initialize                                 1     1      0     317
                                             10 COMRAM     1     1      0
           _INT0_SetInterruptHandler
           _INT1_SetInterruptHandler
           _INT2_SetInterruptHandler
 ---------------------------------------------------------------------------------
 (3) _INT2_SetInterruptHandler                             2     0      2      98
                                              8 COMRAM     2     0      2
 ---------------------------------------------------------------------------------
 (3) _INT1_SetInterruptHandler                             2     0      2      98
                                              8 COMRAM     2     0      2
 ---------------------------------------------------------------------------------
 (3) _INT0_SetInterruptHandler                             2     0      2      98
                                              8 COMRAM     2     0      2
 ---------------------------------------------------------------------------------
 (2) _DMA1_Initialize                                      0     0      0     174
      _DMA1_SetSCNTIInterruptHandler
 ---------------------------------------------------------------------------------
 (2) _DMA1_SetSCNTIInterruptHandler                        2     0      2     174
                                              8 COMRAM     2     0      2
 ---------------------------------------------------------------------------------
 (2) _CPU_Initialize                                       0     0      0       0
 ---------------------------------------------------------------------------------
 (2) _CLOCK_Initialize                                     0     0      0       0
 ---------------------------------------------------------------------------------
 Estimated maximum stack depth 9
 ---------------------------------------------------------------------------------
 (Depth) Function   	        Calls       Base Space   Used Autos Params    Refs
 ---------------------------------------------------------------------------------
 (12) _Default_ISR                                         0     0      0       0
 ---------------------------------------------------------------------------------
 Estimated maximum stack depth 12
 ---------------------------------------------------------------------------------
 (Depth) Function   	        Calls       Base Space   Used Autos Params    Refs
 ---------------------------------------------------------------------------------
 (12) _IOC_ISR                                             0     0      0       0
                    _PIN_MANAGER_IOC
 ---------------------------------------------------------------------------------
 (13) _PIN_MANAGER_IOC                                     0     0      0       0
 ---------------------------------------------------------------------------------
 Estimated maximum stack depth 13
 ---------------------------------------------------------------------------------
 (Depth) Function   	        Calls       Base Space   Used Autos Params    Refs
 ---------------------------------------------------------------------------------
 (12) _INT0_ISR                                            2     2      0       0
                                              0 COMRAM     2     2      0
                      _INT0_CallBack
 ---------------------------------------------------------------------------------
 (13) _INT0_CallBack                                       0     0      0       0
                                NULL *
       _INT0_DefaultInterruptHandler *
 ---------------------------------------------------------------------------------
 (14) _INT0_DefaultInterruptHandler                        0     0      0       0
 ---------------------------------------------------------------------------------
 (13) NULL(Fake)                                           0     0      0       0
 ---------------------------------------------------------------------------------
 Estimated maximum stack depth 14
 ---------------------------------------------------------------------------------
 (Depth) Function   	        Calls       Base Space   Used Autos Params    Refs
 ---------------------------------------------------------------------------------
 (12) _INT1_ISR                                            2     2      0       0
                                              2 COMRAM     2     2      0
                      _INT1_CallBack
 ---------------------------------------------------------------------------------
 (13) _INT1_CallBack                                       0     0      0       0
                                NULL *
       _INT1_DefaultInterruptHandler *
 ---------------------------------------------------------------------------------
 (14) _INT1_DefaultInterruptHandler                        0     0      0       0
 ---------------------------------------------------------------------------------
 (13) NULL(Fake)                                           0     0      0       0
 ---------------------------------------------------------------------------------
 Estimated maximum stack depth 14
 ---------------------------------------------------------------------------------
 (Depth) Function   	        Calls       Base Space   Used Autos Params    Refs
 ---------------------------------------------------------------------------------
 (12) _INT2_ISR                                            2     2      0       0
                                              4 COMRAM     2     2      0
                      _INT2_CallBack
 ---------------------------------------------------------------------------------
 (13) _INT2_CallBack                                       0     0      0       0
                                NULL *
       _INT2_DefaultInterruptHandler *
 ---------------------------------------------------------------------------------
 (14) _INT2_DefaultInterruptHandler                        0     0      0       0
 ---------------------------------------------------------------------------------
 (13) NULL(Fake)                                           0     0      0       0
 ---------------------------------------------------------------------------------
 Estimated maximum stack depth 14
 ---------------------------------------------------------------------------------
 (Depth) Function   	        Calls       Base Space   Used Autos Params    Refs
 ---------------------------------------------------------------------------------
 (12) _DMA1_DMASCNTI_ISR                                   2     2      0       0
                                              6 COMRAM     2     2      0
                                NULL *
       _DMA1_DefaultInterruptHandler *
                            _DMA_ISR *
 ---------------------------------------------------------------------------------
 (13) _DMA_ISR                                             0     0      0       0
                        _Timer0_Stop
 ---------------------------------------------------------------------------------
 (14) _Timer0_Stop                                         0     0      0       0
 ---------------------------------------------------------------------------------
 (13) _DMA1_DefaultInterruptHandler                        0     0      0       0
 ---------------------------------------------------------------------------------
 (13) NULL(Fake)                                           0     0      0       0
 ---------------------------------------------------------------------------------
 Estimated maximum stack depth 14
 ---------------------------------------------------------------------------------

 Call Graph Graphs:

 _main (ROOT)
   _SYSTEM_Initialize
     _CLOCK_Initialize
     _CPU_Initialize
     _DMA1_Initialize
       _DMA1_SetSCNTIInterruptHandler
     _INTERRUPT_Initialize
       _INT0_SetInterruptHandler
       _INT1_SetInterruptHandler
       _INT2_SetInterruptHandler
     _PIN_MANAGER_Initialize
     _SystemArbiter_Initialize
     _Timer0_Initialize
       _Timer0_OverflowCallbackRegister
     _UART1_Initialize
       _UART1_FramingErrorCallbackRegister
       _UART1_OverrunErrorCallbackRegister
       _UART1_ParityErrorCallbackRegister
     _UART2_Initialize
   _covert_channel
     _DMA1_SetSCNTIInterruptHandler
     _DMA1_StartTransfer
     _config_DMA_M2M
     _covert_channel_logic
       _DMA1_StartTransfer
       _Timer0_Start
       _Timer0_Write
       _printf
         _vfprintf
           _vfpfcnvrt
             _dtoa
               ___awdiv
               ___awmod
               _abs
                 ___awmod (ARG)
               _pad
                 _fputc
                   _putch
                     _UART1_IsTxReady
                     _UART1_Write
                 _fputs
                   _fputc
             _fputc
             _utoa
               ___lwdiv
               ___lwmod
               _pad
       _trojan
   _printf

 _Default_ISR (ROOT)

 _IOC_ISR (ROOT)
   _PIN_MANAGER_IOC

 _INT0_ISR (ROOT)
   _INT0_CallBack
     NULL(Fake) *
     _INT0_DefaultInterruptHandler *

 _INT1_ISR (ROOT)
   _INT1_CallBack
     NULL(Fake) *
     _INT1_DefaultInterruptHandler *

 _INT2_ISR (ROOT)
   _INT2_CallBack
     NULL(Fake) *
     _INT2_DefaultInterruptHandler *

 _DMA1_DMASCNTI_ISR (ROOT)
   NULL(Fake) *
   _DMA1_DefaultInterruptHandler *
   _DMA_ISR *
     _Timer0_Stop

 Address spaces:
Name               Size   Autos  Total    Cost      Usage
BIGRAM             FFF      0       0      37        0.0%
EEDATA             200      0       0       0        0.0%
BITBIGSFRlllllh    110      0       0      60        0.0%
BITBIGSFR_1        100      0       0      36        0.0%
BITBANK20          100      0       0      34        0.0%
BANK20             100      0       0      35        0.0%
BITBANK19          100      0       0      32        0.0%
BANK19             100      0       0      33        0.0%
BITBANK18          100      0       0      30        0.0%
BANK18             100      0       0      31        0.0%
BITBANK17          100      0       0      28        0.0%
BANK17             100      0       0      29        0.0%
BITBANK16          100      0       0      26        0.0%
BANK16             100      0       0      27        0.0%
BITBANK15          100      0       0      24        0.0%
BANK15             100      0       0      25        0.0%
BITBANK14          100      0       0      22        0.0%
BANK14             100      0       0      23        0.0%
BITBANK13          100      0       0      20        0.0%
BANK13             100      0       0      21        0.0%
BITBANK12          100      0       0      18        0.0%
BANK12             100      0       0      19        0.0%
BITBANK11          100      0       0      16        0.0%
BANK11             100      0       0      17        0.0%
BITBANK10          100      0       0      14        0.0%
BANK10             100      0       0      15        0.0%
BITBANK9           100      0       0      12        0.0%
BANK9              100      0       0      13        0.0%
BITBANK8           100      0       0      10        0.0%
BANK8              100      0       0      11        0.0%
BITBANK7           100      0       0       8        0.0%
BANK7              100      0       0       9        0.0%
BITBANK6           100      0       0       6        0.0%
BANK6              100      0       0       7        0.0%
BITBIGSFRllllll     AC      0       0      67        0.0%
BITBANK5            A0      0       0       4        0.0%
BANK5               A0      8      48       5       45.0%
BITBIGSFRllhhhh     96      0       0      48        0.0%
BITBIGSFRllllh      61      0       0      59        0.0%
BITCOMRAM           5F      0       0       0        0.0%
COMRAM              5F     48      56       1       90.5%
BITBIGSFRllhhhh     51      0       0      51        0.0%
BITBIGSFRllhhhh     4B      0       0      50        0.0%
BITBIGSFRlhhhhh     4A      0       0      45        0.0%
BITBIGSFRlhhhl      41      0       0      47        0.0%
BITBIGSFRlllllh     28      0       0      63        0.0%
BITBIGSFRhhhl       1C      0       0      39        0.0%
BITBIGSFRllhl       19      0       0      57        0.0%
BITBIGSFRlllh       13      0       0      58        0.0%
BITBIGSFRhhl         D      0       0      40        0.0%
BITBIGSFRhhhh        B      0       0      38        0.0%
BITBIGSFRlhhhhh      9      0       0      44        0.0%
BITBIGSFRhl          5      0       0      41        0.0%
BITBIGSFRlllllh      4      0       0      64        0.0%
BITBIGSFRlhhhhh      3      0       0      42        0.0%
BITBIGSFRlhhhhl      3      0       0      46        0.0%
BITBIGSFRlllllh      3      0       0      62        0.0%
BITBIGSFRlhhhhh      2      0       0      43        0.0%
BITBIGSFRllhhl       2      0       0      56        0.0%
BITBIGSFRlllllh      2      0       0      61        0.0%
BITBIGSFRllhhhh      1      0       0      49        0.0%
BITBIGSFRllhhhh      1      0       0      52        0.0%
BITBIGSFRllhhhh      1      0       0      53        0.0%
BITBIGSFRllhhhh      1      0       0      54        0.0%
BITBIGSFRllhhhl      1      0       0      55        0.0%
BITBIGSFRlllllh      1      0       0      65        0.0%
BITBIGSFRlllllh      1      0       0      66        0.0%
BIGSFR_1             0      0       0     200        0.0%
BIGSFR               0      0       0     200        0.0%
BITSFR_6             0      0       0     200        0.0%
SFR_6                0      0       0     200        0.0%
BITSFR_5             0      0       0     200        0.0%
SFR_5                0      0       0     200        0.0%
BITSFR_4             0      0       0     200        0.0%
SFR_4                0      0       0     200        0.0%
BITSFR_3             0      0       0     200        0.0%
SFR_3                0      0       0     200        0.0%
BITSFR_2             0      0       0     200        0.0%
SFR_2                0      0       0     200        0.0%
BITSFR_1             0      0       0     200        0.0%
SFR_1                0      0       0     200        0.0%
BITSFR               0      0       0     200        0.0%
SFR                  0      0       0     200        0.0%
STACK                0      0       0       2        0.0%
NULL                 0      0       0       0        0.0%
ABS                  0      0      9E      68        0.0%
DATA                 0      0      9E       3        0.0%
CODE                 0      0       0       0        0.0%


Microchip Technology PIC18 Macro Assembler V2.41 build 20230208172133 
Symbol Table                                                                                   Sun Apr  9 15:36:54 2023

                                               l71 1E24                                                 l89 254E  
                                     ___awdiv@sign 050E                                                l130 1FDA  
                                              l132 2002                                                l127 1FB0  
                                              l139 2346                                                l163 1D94  
                                              l430 25A4                                                l327 2454  
                                              l175 24DC                                                l424 24A4  
                                              l328 2456                                                l344 2602  
                                              l427 242C                                                l516 2072  
                                              l276 1EA2                                                l356 24C2  
                                              l373 2516                                                l606 2376  
                                              l553 25E6                                                l369 2532  
                                              l377 24FA                                                l713 25C8  
                                              l609 2608                                                l538 25F0  
                                              l618 25BE                                                l731 25FA  
                                              l627 25D2                                                l459 2312  
                                              l568 25DC                                                l683 2130  
                                              l981 1CEA                                                l968 1C3A  
                                              _GIE 26B7                         ??_INT0_SetInterruptHandler 050B  
                                              _Dst 0596                                                _Src 0598  
                                              _abs 225C                                                _end 056E  
                                              _pad 1EA4                                                _dst 0572  
                                              _src 0574                                       ___awmod@sign 050E  
                                              tosl 04FD                                                wreg 04E8  
                                    _INT0_CallBack 2378                                     _UART1_IsTxDone 0000  
                                  __end_of_DMA_ISR 25B4                                      _INT1_CallBack 23A6  
                         _UART1_ParityErrorHandler 0568                                     _UART1_ErrorGet 0000  
                                  __end_of_IOC_ISR 2612                                               ?_abs 050F  
                                             l2006 2598                                               l2008 25A2  
                                             l3000 2086                                               l3010 20C2  
                                             l3002 208E                                               l1235 1F90  
                                             l3020 1ED2                                               l1228 1F88  
                                             l3012 20C8                                               l3004 2096  
                                             l3100 1A4E                                               l1245 20D6  
                                             l3030 2276                                               l1510 1B76  
                                             l3022 1EE6                                               l3014 1EA4  
                                             l3006 20A4                                               l1238 20CE  
                                             l3102 1A60                                               l3110 1652  
                                             l1415 247E                                               l3024 1EEA  
                                             l3016 1EB2                                               l3040 1864  
                                             l3032 182A                                               l3008 20BA  
                                             l3104 1A72                                               l3120 16A8  
                                             l3112 1678                                               l3200 1D88  
                                             l1441 1F1C                                               l3026 1F08  
                                             l3018 1EBE                                               l3050 18B2  
                                             l3042 1880                                               l3034 183E  
                                             l3106 1A8C                                               l3130 1740  
                                             l3122 16C6                                               l3114 1686  
                                             l3210 224A                                               l3202 221C  
                                             l3028 225C                                               l1460 19BC  
                                             l3060 1908                                               l3052 18BA  
                                             l3044 1890                                               l3036 184E  
                                             l3140 17BE                                               l3132 175E  
                                             l3124 16E4                                               l3116 1694  
                                             l3212 2252                                               l3204 2228  
                                             l3220 24D8                                               l1437 1EC6  
                                             l1518 221A                                               l3070 195C  
                                             l3062 190E                                               l3054 18C6  
                                             l3046 1896                                               l1446 1870  
                                             l3038 1856                                               l3134 17A6  
                                             l3142 17EC                                               l3126 1728  
                                             l3118 1698                                               l3206 2234  
                                             l3214 24C4                                               l2600 2518  
                                             l3072 1976                                               l3064 1914  
                                             l3056 18D0                                               l3048 18A6  
                                             l1448 1878                                               l1472 1AAC  
                                             l1464 19D8                                               l3160 2194  
                                             l3208 2238                                               l3216 24C8  
                                             l1449 18BE                                               l2602 252A  
                                             l2610 24F2                                               l3074 1986  
                                             l3058 18D6                                               l3066 1930  
                                             l3090 19FA                                               l1466 19E0  
                                             l3082 19BE                                               l3146 17FE  
                                             l3162 21B0                                               l3170 2462  
                                             l3218 24CA                                               l1491 21D6  
                                             l2612 25E8                                               l2700 200E  
                                             l2604 24FC                                               l2620 2314  
                                             l3076 198C                                               l3068 194A  
                                             l3092 1A00                                               l3084 19CC  
                                             l3252 17DE                                               l3164 21CE  
                                             l3180 1D1E                                               l2614 25DE  
                                             l2710 2040                                               l2702 201A  
                                             l2606 250E                                               l2622 2332  
                                             l3078 199C                                               l3094 1A26  
                                             l3086 19E8                                               l3158 2188  
                                             l3190 1D68                                               l3182 1D22  
                                             l3174 1CEC                                               l1495 2292  
                                             l1479 1828                                               l2616 25D4  
                                             l2720 2054                                               l2712 2042  
                                             l2704 2030                                               l2608 24E0  
                                             l2624 233A                                               l3096 1A2C  
                                             l3088 19F0                                               l3168 2458  
                                             l3184 1D3E                                               l3176 1CFC  
                                             l2722 2056                                               l2714 2044  
                                             l2706 2032                                               l2618 25CA  
                                             l1498 229A                                               l3098 1A32  
                                             l3186 1D58                                               l3194 1D74  
                                             l3178 1D1A                                               l2724 2062  
                                             l2716 2046                                               l2708 203C  
                                             l2660 1E80                                               l2900 1B8A  
                                             l2580 1FF2                                               l3196 1D80  
                                             l3188 1D5C                                               l2670 2110  
                                             l2726 2064                                               l2718 2052  
                                             l2662 1E8C                                               l2750 248C  
                                             l2590 25BA                                               l2910 1BB0  
                                             l2902 1B92                                               l2574 1F9A  
                                             l3198 1D84                                               l2680 211A  
                                             l2672 2112                                               l2728 2066  
                                             l2664 1E98                                               l2656 1E26  
                                             l2752 2490                                               l2592 2604  
                                             l2920 1BE8                                               l2912 1BB8  
                                             l2904 1B96                                               l2576 1FC4  
                                             l2568 1F92                                               l1890 2534  
                                             l1938 2402                                               l2682 2126  
                                             l2674 2114                                               l2666 20D8  
                                             l2690 2362                                               l2658 1E74  
                                             l1970 22DC                                               l2754 2494  
                                             l2594 25C0                                               l2930 1C14  
                                             l2922 1BEE                                               l2914 1BCA  
                                             l2906 1BA4                                               l2578 1FEE  
                                             l2684 2128                                               l2676 2116  
                                             l2668 210E                                               l1884 1D96  
                                             l2692 236E                                               l2756 2498  
                                             l2748 2480                                               l2596 25C6  
                                             l2588 25B4                                               l2924 1C04  
                                             l2916 1BD2                                               l2932 1C1A  
                                             l2908 1BAC                                               l2940 1C3C  
                                             l2860 2450                                               l2598 25F2  
                                             l2686 212A                                               l2678 2118  
                                             l1886 1DE8                                               l2694 2370  
                                             l2758 24A0                                               l2934 1C2A  
                                             l2926 1C0C                                               l2918 1BDA  
                                             l2950 1C68                                               l2942 1C40  
                                             l2854 242E                                               l2870 24BC  
                                             ?_pad 051B                                               l2696 2004  
                                             l1888 1DF2                                               l2688 2348  
                                             l2936 1C32                                               l2928 1C0E  
                                             l2960 1CA0                                               l2952 1C70  
                                             l2944 1C4E                                               l2856 2432  
                                             l2864 25FE                                               l2880 1ADC  
                                             l2698 2006                                               l2970 1CDA  
                                             l2962 1CB6                                               l2954 1C82  
                                             l2946 1C56                                               l2858 2442  
                                             l2866 24A8                                               l2882 1AFA  
                                             l2874 1AAE                                               l2890 21E4  
                                             l2972 1CE2                                               l2964 1CBE  
                                             l2956 1C8A                                               l2948 1C5A  
                                             l2868 24A8                                               l2884 1B30  
                                             l2876 1AC0                                               l2892 21F6  
                                             l2980 1F38                                               l2966 1CC4  
                                             l2958 1C92                                               l2878 1AD2  
                                             l2894 21FA                                               l2990 1F72  
                                             l2982 1F40                                               l2896 1B78  
                                             l2968 1CCA                                               l2888 21D8  
                                             l2992 1F7A                                               l2984 1F48  
                                             l2976 1F1E                                               l2898 1B7C  
                                             l2994 1F7C                                               l2986 1F56  
                                             l2978 1F26                                               l2996 1F82  
                                             l2988 1F5C                                               l2998 2074  
                                             STR_1 163D                                               STR_2 1648  
                                             u2000 16E4                                               u2001 16E0  
                                             u2010 175E                                               u2011 175A  
                                             u2020 21CE                                               u1300 2002  
                                             u2021 21CA                                               u1301 1FFE  
                                             u1310 252A                                               u2030 1CFC  
                                             u1311 2526                                               u2031 1CF8  
                                             u1320 250E                                               u2040 1D3E  
                                             u1321 250A                                               u2041 1D3A  
                                             u1330 24F2                                               u2050 1D58  
                                             u1331 24EE                                               u2051 1D54  
                                             u2060 224A                                               u2061 2246  
                                             _LATA 04BE                                               _LATB 04BF  
                                             _LATC 04C0                                               u1600 1AFA  
                                             u1280 1FB0                                               u1601 1AF6  
                                             u1281 1FAC                                               u1610 1B30  
                                             u1290 1FDA                                               u1611 1B2C  
                                             u1291 1FD6                                               u1700 1C68  
                                             u1620 221A                                               u1701 1C64  
                                             u1621 2216                                               u1630 1B8A  
                                             u1710 1C82                                               u1550 2442  
                                             u1375 203A                                               u1631 1B86  
                                             u1711 1C7E                                               u1551 243E  
                                             u1376 203C                                               u1640 1BA4  
                                             u1720 1CA0                                               u1560 2450  
                                             u1800 20BA                                               u1641 1BA0  
                                             u1721 1C9C                                               u1561 244C  
                                             u1801 20B6                                               u1650 1BCA  
                                             u1730 1CB6                                               u1570 24BC  
                                             u1810 1EB2                                               u1651 1BC6  
                                             u1731 1CB2                                               u1571 24B8  
                                             u1811 1EAE                                               u1660 1BE8  
                                             u1740 1CDA                                               u1580 1AC0  
                                             u1820 1F08                                               u1900 194A  
                                             u1661 1BE4                                               u1741 1CD6  
                                             u1581 1ABC                                               u1821 1F04  
                                             u1901 1946                                               u1670 1C04  
                                             u1830 2276                                               u1590 1AD2  
                                             u1910 195C                                               u1750 1F38  
                                             u1671 1C00                                               u1831 2272  
                                             u1591 1ACE                                               u1911 1958  
                                             u1751 1F34                                               u1680 1C2A  
                                             u1920 1976                                               u1840 183A  
                                             u1760 1F56                                               u1681 1C26  
                                             u1921 1972                                               u1841 1834  
                                             u1761 1F52                                               u1690 1C4E  
                                             u1930 1986                                               u1850 183C  
                                             u1770 1F72                                               u1691 1C4A  
                                             u1931 1982                                               u1771 1F6E  
                                             u1860 184E                                               u1780 2086  
                                             u1940 19CC                                               u1861 184A  
                                             u1781 2082                                               u1941 19C8  
                                             u1870 1864                                               u1790 20A4  
                                             u1950 1A60                                               u1871 1860  
                                             u1791 20A0                                               u1951 1A5C  
                                             u1880 1890                                               u1960 1A72  
                                             u1881 188C                                               u1961 1A6E  
                                             u1890 18A6                                               u1970 1A8C  
                                             u1891 18A2                                               u1971 1A88  
                                             u1980 1678                                               u1981 1674  
                                             u1990 16C6                                               u1991 16C2  
                                             i2l74 261E                                _UART1_IsTxReady$722 0509  
                                             _WPUA 0401                                               _WPUB 0409  
                                             _WPUC 0411                                      _INT2_CallBack 23D4  
                                             abs@a 050F                                               _dbuf 0576  
                                             _main 24C4                                               _dtoa 182A  
                                             _prec 0549                                               pad@i 0522  
                                             pad@p 051F                                               fsr1h 04E2  
                                             fsr2h 04DA                                               indf2 04DF  
                                             fsr1l 04E1                                               pad@w 0524  
                                             fsr2l 04D9                                               _utoa 19BE  
                                             _sync 054F                          ?_INT2_SetInterruptHandler 0509  
                                             start 00BA                                    _UART1_IsRxReady 0000  
                                  _UART1_IsTxReady 242E                                       ___param_bank 0000  
                                            ??_abs 0511                                              ??_pad 0521  
                                 __end_of_INT0_ISR 2568                                   __end_of_INT1_ISR 2580  
                                 __end_of_INT2_ISR 2598                                              ?_main 0501  
                                            ?_dtoa 0526                                    __end_of___awdiv 1C3C  
                                  __end_of___awmod 1CEC                                              ?_utoa 0526  
                                  ___awdiv@divisor 050B                                              _U1P1H 02A6  
                                            _U1P2H 02A8                                              _U1P1L 02A5  
                                            _U1P3H 02AA                                              _U1P2L 02A7  
                                            _U1P3L 02A9                                              _U2P1L 02B8  
                                            _U2P2L 02BA                                              _U2P3L 02BC  
                                            _IOCAF 0407                                              _IOCBF 040F  
                                            _IOCCF 0417                                              _IOCAN 0406  
                                            _IOCAP 0405                                              _IOCBN 040E  
                                            _IOCCN 0416                                              _IOCBP 040D  
                                            _IOCCP 0415                                    __end_of___lwdiv 1F92  
                                            _U1UIR 02B1                                              _U1RXB 02A1  
                                            _U2UIR 02C4                                    __end_of___lwmod 20D8  
                                            _U1TXB 02A3                                              i2l154 25B2  
                                            _U2TXB 02B6                                              i2l521 261C  
                                            i2l531 255E                                              i2l612 2616  
                                            i2l541 2620                                              i2l550 23D2  
                                            i2l526 2610                                              i2l535 23A4  
                                            i2l561 258E                                              i2l546 2576  
                                            i2l571 2624                                              i2l556 2622  
                                            i2l565 2400                                              i2l734 2626  
                                            i2l728 22D2                                    ___awdiv@counter 050D  
                                            _ISRPR 00BF                                              _OSCEN 00B3  
                                            _UART1 1601                                       vfpfcnvrt@fmt 0535  
                                            _TMR0H 0319                                              _TMR0L 0318  
                                            _PRODH 04F4                                              _PRODL 04F3  
                                            _TRISA 04C6                                              _TRISB 04C7  
                                   ?_INT0_CallBack 0501                                              _TRISC 04C8  
                                      _Default_ISR 261C              fp__UART1_FramingErrorCallbackRegister 0000  
       __end_of_UART1_FramingErrorCallbackRegister 2534               ??_UART1_FramingErrorCallbackRegister 050B  
              ?_UART1_FramingErrorCallbackRegister 0509                 _UART1_FramingErrorCallbackRegister 2518  
                                   ?_INT1_CallBack 0501                               Timer0_Write@timerVal 0509  
                          __end_of_PIN_MANAGER_IOC 2620                                              _flags 0555  
                   ??_INT1_DefaultInterruptHandler 0503                                              _fputc 1AAE  
                                            _fputs 21D8                                              pad@fp 051B  
                                            _width 0560                                     fp__UART1_Write 0000  
                                            _putch 24A6                                              _start 0570  
                                            dtoa@d 0528                                              dtoa@i 0531  
                                            dtoa@p 052C                                              dtoa@s 0530  
                                            dtoa@w 052E                                     ?_INT2_CallBack 0501  
                         _INT1_SetInterruptHandler 25DE                                              pclath 04FA  
                                            pclatu 04FB                                              tablat 04F5  
                                            utoa@d 0528                                              utoa@i 052E  
                                            utoa@p 052C                                              utoa@w 052A  
                                            status 04D8                                    __initialization 2132  
                             _UART1_TransmitEnable 0000                                       __end_of_main 24E0  
                                     __end_of_dtoa 19BE                                       __end_of_utoa 1AAE  
                                     ?_UART1_Write 0501                                             ??_main 0549  
                                           ??_dtoa 052A                                          ??_DMA_ISR 0507  
                                           ??_utoa 052A                                      __activetblptr 0003  
                                 ??_config_DMA_M2M 050B                                          ??_IOC_ISR 0501  
                                 _UART1_Initialize 1E26   UART1_ParityErrorCallbackRegister@callbackHandler 0509  
UART1_OverrunErrorCallbackRegister@callbackHandler 0509  UART1_FramingErrorCallbackRegister@callbackHandler 0509  
                                           ?_fputc 050B                                             _ACTCON 00AC  
                                           ?_fputs 0514                                             _DMA1PR 00B6  
                                           _DMA2PR 00B7                                             _DMA3PR 00B8  
                                           _DMA4PR 00B9                                   ___awdiv@dividend 0509  
                                           _ANSELA 0400                                             ?_putch 0501  
                                           _ANSELB 0408                                             _ANSELC 0410  
                                           _T0CON0 031A                                             _T0CON1 031B  
                                           _RB4I2C 0287                                             _U1CON0 02AB  
                                           _U1CON1 02AC                                             _U1CON2 02AD  
                                           _RB6I2C 0286                                             _U1BRGH 02AF  
                                           _U1FIFO 02B0                                             _U2CON0 02BE  
                                           _U2CON1 02BF                                             _U2CON2 02C0  
                                           _U1BRGL 02AE                                             _U2BRGH 02C2  
                                           _U2FIFO 02C3                                             _U2BRGL 02C1  
                                           _MAINPR 00BE                                             _RB7PPS 0210  
                                           _ODCONA 0402                                             _ODCONB 040A  
                                           _ODCONC 0412                                             i2l2134 260C  
                                           i2l2800 2558                                             i2l2626 2612  
                                           i2l2730 25A6                                             i2l2810 258A  
                                           i2l2802 255A                                             i2l2732 25AA  
                                           i2l2820 22A6                                             i2l2804 2570  
                                           i2l2822 22BA                                             i2l2806 2572  
                                           i2l2808 2588                                             i2l2760 2378  
                                           i2l2818 22A4                                             i2l2770 23E8  
                                           i2l2762 238C                                             i2l2764 23A6  
                                           i2l2766 23BA                                             i2l2768 23D4  
                                           _INLVLA 0404                                             _INLVLB 040C  
                                           _INLVLC 0414                                             _SCANPR 00B5  
                          __end_of_UART1_IsTxReady 2458                                             _OSCFRQ 00B1  
                                           _PRLOCK 00B4                                 trojan@input_symbol 0509  
                  ??_DMA1_SetSCNTIInterruptHandler 050B                                      ??_Timer0_Stop 0507  
                                 _UART2_Initialize 22DC                                             _Timer0 1631  
                                     vfprintf@cfmt 0547                                          ??___awdiv 050D  
                                        ??___awmod 050D                                          ??___lwdiv 050D  
                                        ??___lwmod 050D                                             clear_0 2162  
                                           clear_1 216E                                   ___awdiv@quotient 050F  
                                           _sample 0551                                    ___awmod@divisor 050B  
                                           isa$std 0001                                    ___awmod@counter 050D  
                                           _printf 2458                                             pad@buf 051D  
                                  ??_INT0_CallBack 0501                                             _trojan 1F92  
                                           dtoa@fp 0526                                  ?_CLOCK_Initialize 0501  
                                           fputc@c 050B               __end_of_INT2_DefaultInterruptHandler 2626  
                     _INT2_DefaultInterruptHandler 2624                                             fputs@c 0518  
                                           fputs@i 0519                                       __pdataCOMRAM 0556  
                                           fputs@s 0514                                     _covert_channel 221C  
                                  ??_INT1_CallBack 0503                                 ??_CLOCK_Initialize 0509  
                                     __mediumconst 0000                                             tblptrh 04F7  
                                           tblptrl 04F6                                             tblptru 04F8  
            fp__UART1_OverrunErrorCallbackRegister 0000         __end_of_UART1_OverrunErrorCallbackRegister 2518  
             ??_UART1_OverrunErrorCallbackRegister 050B                ?_UART1_OverrunErrorCallbackRegister 0509  
               _UART1_OverrunErrorCallbackRegister 24FC                                    ??_INT2_CallBack 0505  
                                 __end_of_vfprintf 21D8                                             utoa@fp 0526  
    DMA1_SetSCNTIInterruptHandler@InterruptHandler 0509           INT2_SetInterruptHandler@InterruptHandler 0509  
         INT1_SetInterruptHandler@InterruptHandler 0509           INT0_SetInterruptHandler@InterruptHandler 0509  
                                 ?_PIN_MANAGER_IOC 0501                                     _CPU_Initialize 2402  
                                _UART1_AutoBaudSet 0000                                    fp__Timer0_Start 0000  
                                _SYSTEM_Initialize 2480                                    fp__Timer0_Write 0000  
               fp__Timer0_OverflowCallbackRegister 0000            __end_of_Timer0_OverflowCallbackRegister 25D4  
                ??_Timer0_OverflowCallbackRegister 050B                   ?_Timer0_OverflowCallbackRegister 0509  
                  _Timer0_OverflowCallbackRegister 25CA                                         __accesstop 0560  
                          __end_of__initialization 2182                                          ?_INT0_ISR 0501  
                                        ?_INT1_ISR 0501                                          ?_INT2_ISR 0501  
                               ?_SYSTEM_Initialize 0501                                      ___rparam_used 0001  
                                    __end_of_UART1 1631                                  ??_DMA1_Initialize 050B  
                                   __pcstackCOMRAM 0501                                       __pidataBANK5 2618  
                              ??_SYSTEM_Initialize 050D                              _UART1_TransmitDisable 0000  
                                   ivt0x8_undefint 00B8                                      __end_of_fputc 1B78  
                                    __end_of_fputs 221C                                      __end_of_putch 24C4  
                              __end_of_Timer0_Stop 2618                             __end_of_covert_channel 225C  
                      _DMA1_SCNTI_InterruptHandler 05A2                   __end_of_INT2_SetInterruptHandler 25DE  
                        _UART1_FramingErrorHandler 054D                    fp__INT2_DefaultInterruptHandler 0000  
                    ?_INT2_DefaultInterruptHandler 0501                             __end_of_CPU_Initialize 242E  
                                          ??_fputc 050F                          __end_of_SYSTEM_Initialize 24A6  
                                          ??_fputs 0518                                            ??_putch 050A  
                                       __pbssBANK5 0560                           _SystemArbiter_Initialize 2598  
                                 ?_UART1_IsTxReady 0501                              _INT0_InterruptHandler 0566  
                                       ??_INT0_ISR 0501                                         ??_INT1_ISR 0503  
                                       ??_INT2_ISR 0505                                            IVTBASEH 045E  
                                          IVTBASEL 045D                                            IVTBASEU 045F  
                               _UART1_Deinitialize 0000                                      ?_Timer0_Start 0501  
                                    ?_Timer0_Write 0509              __end_of_DMA1_SetSCNTIInterruptHandler 25FC  
                    _DMA1_SetSCNTIInterruptHandler 25F2                                            ?_printf 059A  
                                          ?_trojan 0509                                    ?_covert_channel 0501  
                                          _DMA_ISR 25A6                                            _DMAnDSA 00F0  
                                          _DMAnDSZ 00EE                                            _DMAnSSA 00F9  
                                          _U1ERRIE 02B3                                            _U1ERRIR 02B2  
                                          _DMAnSSZ 00F7                                            _U2ERRIE 02C6  
                                          _U2ERRIR 02C5                         ??_INT1_SetInterruptHandler 050B  
                                     ?_Default_ISR 0501                                            _U1RXCHK 02A2  
                                     _DMAnCON0bits 00FC                                            _U1TXCHK 02A4  
                                     _DMAnCON1bits 00FD                                            _IOC_ISR 260C  
                                          _U1RXPPS 0272                                            _OSCCON1 00AD  
                                          _OSCCON3 00AF                                            _IVTLOCK 0459  
                                          _OSCTUNE 00B0                                    ?_CPU_Initialize 0501  
                                          _SLRCONA 0403                                            _SLRCONB 040B  
                                          _SLRCONC 0413                                fp__UART1_Initialize 0000  
                        ?_INT0_SetInterruptHandler 0509                          INTERRUPT_Initialize@state 050B  
                                   ??_Timer0_Start 0509                                     ??_Timer0_Write 050B  
                                          __Hparam 0000                                            __Lparam 0000  
                         __end_of_UART1_Initialize 1EA4                                        _Timer0_Stop 2612  
                                        _DMASELECT 00E8                                            ___awdiv 1B78  
                                          ___awmod 1C3C                                  _Timer0_Initialize 2348  
                     __end_of_covert_channel_logic 1D96                                            ___lwdiv 1F1E  
                                          ___lwmod 2074                                          ?_vfprintf 0541  
                                     __psmallconst 1600                                            __pcinit 2132  
                               ?_Timer0_Initialize 0501                                            __ramtop 1600  
                                          __ptext0 24C4                                            __ptext1 221C  
                                          __ptext2 1CEC                                            __ptext3 1F92  
                                          __ptext4 2458                                            __ptext5 2188  
                                          __ptext6 1652                                            __ptext7 19BE  
                                          __ptext8 2074                                            __ptext9 1F1E  
                                 ___awmod@dividend 0509                            _timerTMR0ReloadVal16bit 054B  
                                       fp__DMA_ISR 0000                           ??_PIN_MANAGER_Initialize 0509  
                              ??_Timer0_Initialize 050B                           __end_of_UART2_Initialize 2314  
                                          _ptr_cnt 05A6                               end_of_initialization 2182  
                                        _U1UIRbits 02B1                           _INT2_SetInterruptHandler 25D4  
                   ??_INT2_DefaultInterruptHandler 0505                                          _PIR10bits 04BD  
                                          fputc@fp 050D                                            fputs@fp 0516  
                        __end_of_Timer0_Initialize 2378                                  __end_of_vfpfcnvrt 182A  
                                          postdec2 04DD                                            postinc0 04EE  
                                          postinc1 04E6                                            postinc2 04DE  
                                 vfpfcnvrt@convarg 053B                                         ??_vfprintf 0547  
                                          trojan@i 050B                                  UART1_Write@txData 0509  
                 _UART1_DefaultParityErrorCallback 0000                              _INT1_InterruptHandler 0564  
                   ?_DMA1_SetSCNTIInterruptHandler 0509     Timer0_OverflowCallbackRegister@CallbackHandler 0509  
                                  _DMA1_Initialize 20D8                     ??_DMA1_DefaultInterruptHandler 0507  
                                   __end_of_Timer0 163D                         __end_of_DMA1_StartTransfer 25CA  
                     __end_of_INTERRUPT_Initialize 2074               __end_of_INT0_DefaultInterruptHandler 2622  
                     _INT0_DefaultInterruptHandler 2620                                        vfpfcnvrt@ap 0537  
                                      vfpfcnvrt@cp 053F                                        vfpfcnvrt@fp 0533  
                                    __pidataCOMRAM 2628                                     __end_of_printf 2480  
                            __end_of_INT0_CallBack 23A6                                     __end_of_trojan 2004  
                             __end_of_Timer0_Start 260A                               __end_of_Timer0_Write 25C0  
                              start_initialization 2132                         ??_SystemArbiter_Initialize 0509  
                                      __end_of_abs 229C                              __end_of_INT1_CallBack 23D4  
                                      __end_of_pad 1F1E                                        putch@txData 050A  
                                       ivt0x8_base 0008                              __end_of_INT2_CallBack 2402  
                             _covert_channel_logic 1CEC                                        vfprintf@fmt 0543  
                                 ??_covert_channel 0549                                        __pdataBANK5 05A6  
                  fp__INT0_DefaultInterruptHandler 0000                      ?_INT0_DefaultInterruptHandler 0501  
                                         ??_printf 0549                                           ??_trojan 050B  
                                         ?_DMA_ISR 0501                                 config_DMA_M2M@size 0509  
                                 ??_CPU_Initialize 0509                                     fp__Timer0_Stop 0000  
                                         ?_IOC_ISR 0501                            __end_of_DMA1_Initialize 2132  
                                      __pbssCOMRAM 0549                   __end_of_INT0_SetInterruptHandler 25F2  
                                    __pcstackBANK5 059A                              ?_covert_channel_logic 0501  
                            _INT2_InterruptHandler 0562                                          __pnvBANK5 05A2  
                                     ?_Timer0_Stop 0501                                   ___lwdiv@dividend 0509  
                           _PIN_MANAGER_Initialize 1D96                                          _dtoa$1895 052A  
                                ?_UART1_Initialize 0501                                 fp__UART1_IsTxReady 0000  
                                         ?___awdiv 0509                                           ?___awmod 0509  
                                         ?___lwdiv 0509                                 ??_UART1_Initialize 050B  
                                         ?___lwmod 0509                                   _uart1RxLastError 056C  
                                    ??_UART1_Write 0509                                        __smallconst 1600  
                       ??_INT2_SetInterruptHandler 050B                     _Timer0_DefaultOverflowCallback 0000  
                                ?_UART2_Initialize 0501                                   ___lwdiv@quotient 050E  
                                _DMA1_DMASCNTI_ISR 229C                                        _U1ERRIRbits 02B2  
                                         _DMAnCON0 00FC                                           _DMAnCON1 00FD  
                                         _DMAnAIRQ 00FE                                 ??_UART2_Initialize 0509  
                                         _DMAnDPTR 00EC                               _INTERRUPT_Initialize 2004  
                                         _DMAnSIRQ 00FF                                           _DMAnSPTR 00F4  
                                 _CLOCK_Initialize 2534                                 ?_DMA1_DMASCNTI_ISR 0501  
                                         _INT0_ISR 2550                                           _INT1_ISR 2568  
                                         _INT2_ISR 2580                          ?_INT1_SetInterruptHandler 0509  
                                         _IPR0bits 0367                                           _IPR2bits 0369  
                                         _PIE2bits 04AA                                           _IVTBASEH 045E  
                                         _IVTBASEL 045D                                           _IVTBASEU 045F  
                                         i2u141_40 23BA                                           i2u140_48 2392  
                                         i2u141_41 23B6                                           i2u140_49 23A4  
                                         i2u143_40 23E8                                           i2u142_48 23C0  
                                         i2u143_41 23E4                                           i2u142_49 23D2  
                                         i2u153_40 22BA                                           i2u144_48 23EE  
                                         i2u153_41 22B6                                           i2u144_49 2400  
                                         i2u154_48 22C0                                           i2u139_40 238C  
                                         i2u154_49 22D2                                           i2u139_41 2388  
                                         _PIR1bits 04B4                                           _PIR2bits 04B5  
                              ??_DMA1_DMASCNTI_ISR 0507                                           _PIR3bits 04B6  
                                         _PIR6bits 04B9                                  ??_PIN_MANAGER_IOC 0501  
                                        _vfpfcnvrt 1652                                       _input_symbol 0553  
                 __end_of_SystemArbiter_Initialize 25A6                                   ?_DMA1_Initialize 0501  
                   ??_INT0_DefaultInterruptHandler 0501                                __end_of_UART1_Write 2604  
                        __end_of_DMA1_DMASCNTI_ISR 22DC                             ??_covert_channel_logic 0549  
                                      _INTCON0bits 04D6                              ?_INTERRUPT_Initialize 0501  
                         _INT0_SetInterruptHandler 25E8                                     _config_DMA_M2M 2314  
                                     _Timer0_Tasks 0000                                           __Hrparam 0000  
                                     _Timer0_Start 2604                                       _Timer0_Write 25B4  
                                       vfprintf@ap 0545                                           __Lrparam 0000  
                                       vfprintf@fp 0541                                         ?_vfpfcnvrt 0533  
                                ??_UART1_IsTxReady 0509                  _UART1_DefaultFramingErrorCallback 0000  
                                       _T0CON0bits 031A                                           __pivt0x8 0008  
                               _DMA1_StartTransfer 25C0                               fp__Timer0_Initialize 0000  
                                  ___lwdiv@divisor 050B                                    ___lwdiv@counter 050D  
                                         __ptext10 182A                                           __ptext11 1EA4  
                                         __ptext20 25B4                                           __ptext12 21D8  
                                         __ptext21 2604                                           __ptext13 1AAE  
                                         __ptext30 2348                                           __ptext22 25C0  
                                         __ptext14 24A6                                           __ptext31 25CA  
                                         __ptext23 2314                                           __ptext15 25FC  
                                         __ptext40 2402                                           __ptext32 2598  
                                         __ptext24 2480                                           __ptext16 242E  
                                         __ptext41 2534                                           __ptext33 1D96  
                                         __ptext25 22DC                                           __ptext17 225C  
                                         __ptext50 2622                                           __ptext42 261C  
                                         __ptext34 2004                                           __ptext26 1E26  
                                         __ptext18 1C3C                                           __ptext51 2580  
                                         __ptext43 260C                                           __ptext35 25D4  
                                         __ptext27 24E0                                           __ptext19 1B78  
                                         __ptext52 23D4                                           __ptext44 261E  
                                         __ptext36 25DE                                           __ptext28 24FC  
                                         __ptext53 2624                                           __ptext45 2550  
                                         __ptext37 25E8                                           __ptext29 2518  
                                         __ptext54 229C                                           __ptext46 2378  
                                         __ptext38 20D8                                           __ptext55 2626  
                                         __ptext47 2620                                           __ptext39 25F2  
                                         __ptext56 25A6                                           __ptext48 2568  
                                         __ptext57 2612                                           __ptext49 23A6  
                                         __ptext58 0000                             __end_of_config_DMA_M2M 2348  
                                       _U1CON0bits 02AB                                         _U1CON1bits 02AC  
                                       _U1FIFObits 02B0                                ?_DMA1_StartTransfer 0501  
                                      _IVTLOCKbits 0459                          _UART1_OverrunErrorHandler 056A  
                                         isa$xinst 0000                                           _vfprintf 2188  
                                        printf@fmt 059A                               ??_DMA1_StartTransfer 0509  
                                      _UART1_Write 25FC               __end_of_INT1_DefaultInterruptHandler 2624  
                     _INT1_DefaultInterruptHandler 2622               __end_of_DMA1_DefaultInterruptHandler 2628  
                     _DMA1_DefaultInterruptHandler 2626                                      ??_Default_ISR 0501  
                           ??_INTERRUPT_Initialize 050B                                    ?_config_DMA_M2M 0509  
                          _Timer0_OverflowCallback 05A4                                           intlevel2 0000  
                                 ___lwmod@dividend 0509                            ?_PIN_MANAGER_Initialize 0501  
                        ?_SystemArbiter_Initialize 0501                                           printf@ap 05A0  
                                       _UART1_Read 0000                                        ??_vfpfcnvrt 0539  
                         __end_of_CLOCK_Initialize 2550                          covert_channel_logic@first 0556  
                  fp__INT1_DefaultInterruptHandler 0000                      ?_INT1_DefaultInterruptHandler 0501  
                                       _PRLOCKbits 00B4                    fp__DMA1_DefaultInterruptHandler 0000  
                    ?_DMA1_DefaultInterruptHandler 0501                                    ___lwmod@divisor 050B  
                                  ___lwmod@counter 050D                   __end_of_INT1_SetInterruptHandler 25E8  
                _UART1_DefaultOverrunErrorCallback 0000                                __end_of_Default_ISR 261E  
                   __end_of_PIN_MANAGER_Initialize 1E26               fp__UART1_ParityErrorCallbackRegister 0000  
        __end_of_UART1_ParityErrorCallbackRegister 24FC                ??_UART1_ParityErrorCallbackRegister 050B  
               ?_UART1_ParityErrorCallbackRegister 0509                  _UART1_ParityErrorCallbackRegister 24E0  
                                  _PIN_MANAGER_IOC 261E                                _UART1_AutoBaudQuery 0000  
